
build/rpi4/baremetal.elf:     file format elf64-littleaarch64


Disassembly of section .start:

0000000000080000 <_start>:
.global _start
_start:

    /* Valid Image header.  */
    /* HW reset vector.  */
    b skip_header
   80000:	14000012 	b	80048 <skip_header>
    nop
   80004:	d503201f 	nop
	...
   80018:	00000008 	.word	0x00000008
	...
   80038:	644d5241 	.word	0x644d5241
	...

0000000000080048 <skip_header>:
    /* RES0  */
    .dword 0
    /* End of Image header.  */

skip_header:
    mrs x0, MPIDR_EL1
   80048:	d53800a0 	mrs	x0, mpidr_el1
    and x0, x0, MPIDR_CPU_MASK
   8004c:	92401c00 	and	x0, x0, #0xff
     * Check current exception level. If in:
     *     - el0 or el3, stop
     *     - el1, proceed
     *     - el2, jump to el1
     */
    mrs x1, currentEL
   80050:	d5384241 	mrs	x1, currentel
    lsr x1, x1, 2
   80054:	d342fc21 	lsr	x1, x1, #2
    cmp x1, 0
   80058:	f100003f 	cmp	x1, #0x0
    b.eq .
   8005c:	54000000 	b.eq	8005c <skip_header+0x14>  // b.none
    cmp x1, 3
   80060:	f1000c3f 	cmp	x1, #0x3
    b.eq .
   80064:	54000000 	b.eq	80064 <skip_header+0x1c>  // b.none
    cmp x1, 1
   80068:	f100043f 	cmp	x1, #0x1
    b.eq _enter_el1
   8006c:	54000100 	b.eq	8008c <_enter_el1>  // b.none
    mov x1, SPSR_EL1t | SPSR_F | SPSR_I | SPSR_A | SPSR_D
   80070:	d2807881 	mov	x1, #0x3c4                 	// #964
    msr spsr_el2, x1
   80074:	d51c4001 	msr	spsr_el2, x1
    mov x1, HCR_RW_BIT
   80078:	d2b00001 	mov	x1, #0x80000000            	// #2147483648
    msr hcr_el2, x1
   8007c:	d51c1101 	msr	hcr_el2, x1
    adr x1, _enter_el1
   80080:	10000061 	adr	x1, 8008c <_enter_el1>
    msr elr_el2, x1
   80084:	d51c4021 	msr	elr_el2, x1
    eret
   80088:	d69f03e0 	eret

000000000008008c <_enter_el1>:

_enter_el1:
    adr x1, _exception_vector
   8008c:	1000bba1 	adr	x1, 81800 <_exception_vector>
    msr	VBAR_EL1, x1
   80090:	d518c001 	msr	vbar_el1, x1

    ldr x1, =MAIR_EL1_DFLT
   80094:	58000621 	ldr	x1, 80158 <clear+0x18>
    msr	MAIR_EL1, x1
   80098:	d518a201 	msr	mair_el1, x1

    ldr x1, =0x0000000000802510
   8009c:	58000621 	ldr	x1, 80160 <clear+0x20>
    msr TCR_EL1, x1
   800a0:	d5182041 	msr	tcr_el1, x1

    adr x1, root_page_table
   800a4:	100bfae1 	adr	x1, 98000 <root_page_table>
    msr TTBR0_EL1, x1
   800a8:	d5182001 	msr	ttbr0_el1, x1

    // Enable floating point
    mov x1, #(3 << 20)
   800ac:	d2a00601 	mov	x1, #0x300000              	// #3145728
    msr CPACR_EL1, x1
   800b0:	d5181041 	msr	cpacr_el1, x1

    //TODO: invalidate caches, bp, .. ?

    tlbi	vmalle1
   800b4:	d508871f 	tlbi	vmalle1
	dsb	nsh
   800b8:	d503379f 	dsb	nsh
	isb
   800bc:	d5033fdf 	isb

    ldr x1, =(SCTLR_RES1 | SCTLR_M | SCTLR_C | SCTLR_I)
   800c0:	58000541 	ldr	x1, 80168 <clear+0x28>
    msr SCTLR_EL1, x1
   800c4:	d5181001 	msr	sctlr_el1, x1

    tlbi	vmalle1
   800c8:	d508871f 	tlbi	vmalle1
	dsb	nsh
   800cc:	d503379f 	dsb	nsh
	isb
   800d0:	d5033fdf 	isb
.pushsection .data
.global master_cpu
master_cpu: .8byte 0x0
master_cpu_set: .8byte 0x0
.popsection
    adr     x1, master_cpu_set
   800d4:	100b08e1 	adr	x1, 961f0 <master_cpu_set>
    mov     x2, 1
   800d8:	d2800022 	mov	x2, #0x1                   	// #1
1:
    ldaxr   x3, [x1]
   800dc:	c85ffc23 	ldaxr	x3, [x1]
    cbnz    x3, skip
   800e0:	b5000163 	cbnz	x3, 8010c <skip>
    stlxr   w3, x2, [x1]
   800e4:	c803fc22 	stlxr	w3, x2, [x1]
    cbnz    w3, 1b
   800e8:	35ffffa3 	cbnz	w3, 800dc <_enter_el1+0x50>
    adr     x1, master_cpu
   800ec:	100b07e1 	adr	x1, 961e8 <master_cpu>
    str     x0, [x1]
   800f0:	f9000020 	str	x0, [x1]

    ldr x16, =__bss_start 
   800f4:	580003f0 	ldr	x16, 80170 <clear+0x30>
    ldr x17, =__bss_end   
   800f8:	58000411 	ldr	x17, 80178 <clear+0x38>
    bl  clear
   800fc:	94000011 	bl	80140 <clear>
    .align 3
wait_flag:
    .dword 0x0
    .popsection

    adr x1, wait_flag
   80100:	100b07c1 	adr	x1, 961f8 <wait_flag>
    mov x2, #1
   80104:	d2800022 	mov	x2, #0x1                   	// #1
    str x2, [x1]
   80108:	f9000022 	str	x2, [x1]

000000000008010c <skip>:

skip:
1:
    adr x1, wait_flag
   8010c:	100b0761 	adr	x1, 961f8 <wait_flag>
    ldr x2, [x1]
   80110:	f9400022 	ldr	x2, [x1]
    cbz x2, 1b
   80114:	b4ffffc2 	cbz	x2, 8010c <skip>

    mov x3, #SPSel_SP							
   80118:	d2800023 	mov	x3, #0x1                   	// #1
	msr SPSEL, x3	
   8011c:	d5184203 	msr	spsel, x3

    ldr x1, =_stack_base
   80120:	58000301 	ldr	x1, 80180 <clear+0x40>
    ldr x2, =STACK_SIZE
   80124:	58000322 	ldr	x2, 80188 <clear+0x48>
    add x1, x1, x2
   80128:	8b020021 	add	x1, x1, x2
#ifndef SINGLE_CORE
    madd x1, x0, x2, x1
   8012c:	9b020401 	madd	x1, x0, x2, x1
#endif
    mov sp, x1
   80130:	9100003f 	mov	sp, x1
   
    //TODO: other c runtime init (ctors, etc...)

    b _init
   80134:	14000370 	b	80ef4 <_init>
    b _exit
   80138:	1400035e 	b	80eb0 <_exit>

000000000008013c <psci_wake_up>:

.global psci_wake_up
psci_wake_up:
    b .
   8013c:	14000000 	b	8013c <psci_wake_up>

0000000000080140 <clear>:

 .func clear
clear:
2:
	cmp	x16, x17			
   80140:	eb11021f 	cmp	x16, x17
	b.ge 1f				
   80144:	5400006a 	b.ge	80150 <clear+0x10>  // b.tcont
	str	xzr, [x16], #8	
   80148:	f800861f 	str	xzr, [x16], #8
	b	2b				
   8014c:	17fffffd 	b	80140 <clear>
1:
	ret
   80150:	d65f03c0 	ret
   80154:	00000000 	udf	#0
   80158:	0004ff00 	.word	0x0004ff00
   8015c:	00000000 	.word	0x00000000
   80160:	00802510 	.word	0x00802510
   80164:	00000000 	.word	0x00000000
   80168:	30c51835 	.word	0x30c51835
   8016c:	00000000 	.word	0x00000000
   80170:	00100000 	.word	0x00100000
   80174:	00000000 	.word	0x00000000
   80178:	00303138 	.word	0x00303138
   8017c:	00000000 	.word	0x00000000
   80180:	00303140 	.word	0x00303140
   80184:	00000000 	.word	0x00000000
   80188:	00004000 	.word	0x00004000
   8018c:	00000000 	.word	0x00000000

Disassembly of section .text:

0000000000080800 <pmu_setup_counters>:
    unsigned long pmcr = MRS(PMCR_EL0);
    MSR(PMCR_EL0, pmcr | 0x6);
}

static inline size_t pmu_num_counters() {
    return (size_t) bit_extract(MRS(PMCR_EL0), PMCR_N_OFF, PMCR_N_LEN);
   80800:	d53b9c02 	mrs	x2, pmcr_el0
    return word &= ~(1UL << off);
}

static inline uint64_t bit_extract(uint64_t word, uint64_t off, uint64_t len)
{
    return (word >> off) & BIT_MASK(0, len);
   80804:	d34b3c42 	ubfx	x2, x2, #11, #5
const size_t sample_events_size = sizeof(sample_events)/sizeof(size_t);
unsigned long pmu_samples[sizeof(sample_events)/sizeof(size_t)][NUM_SAMPLES];
size_t pmu_used_counters = 0;

void pmu_setup_counters(size_t n, const size_t events[]){
    pmu_used_counters = n < pmu_num_counters()? n : pmu_num_counters();
   80808:	eb02001f 	cmp	x0, x2
   8080c:	54000063 	b.cc	80818 <pmu_setup_counters+0x18>  // b.lo, b.ul, b.last
   80810:	d53b9c00 	mrs	x0, pmcr_el0
   80814:	d34b3c00 	ubfx	x0, x0, #11, #5
   80818:	90000403 	adrp	x3, 100000 <pmu_used_counters>
   8081c:	f9000060 	str	x0, [x3]
    for(size_t i = 0; i < pmu_used_counters; i++){
   80820:	b40001c0 	cbz	x0, 80858 <pmu_setup_counters+0x58>
   80824:	91000063 	add	x3, x3, #0x0
   80828:	d2800000 	mov	x0, #0x0                   	// #0
    //barrier?
    MSR(PMXEVCNTR_EL0, value);
}

static inline void pmu_counter_enable(size_t counter) {
    MSR(PMCNTENSET_EL0, 1UL << counter);
   8082c:	d2800024 	mov	x4, #0x1                   	// #1
        pmu_counter_set_event(i, events[i]);
   80830:	f8607822 	ldr	x2, [x1, x0, lsl #3]
    MSR(PMSELR_EL0, counter);
   80834:	d51b9ca0 	msr	pmselr_el0, x0
    DMB(ish);
}

static inline void fence_sync_write()
{
    DSB(ishst);
   80838:	d5033a9f 	dsb	ishst
    MSR(PMXEVTYPER_EL0, event);
   8083c:	d51b9d22 	msr	pmxevtyper_el0, x2
    MSR(PMCNTENSET_EL0, 1UL << counter);
   80840:	9ac02082 	lsl	x2, x4, x0
   80844:	d51b9c22 	msr	pmcntenset_el0, x2
    for(size_t i = 0; i < pmu_used_counters; i++){
   80848:	f9400062 	ldr	x2, [x3]
   8084c:	91000400 	add	x0, x0, #0x1
   80850:	eb00005f 	cmp	x2, x0
   80854:	54fffee8 	b.hi	80830 <pmu_setup_counters+0x30>  // b.pmore
}

static inline void pmu_cycle_enable(bool en){
    uint64_t val = (1ULL << 31);
    if(en){
        MSR(PMCNTENSET_EL0, val);
   80858:	d2b00000 	mov	x0, #0x80000000            	// #2147483648
   8085c:	d51b9c20 	msr	pmcntenset_el0, x0
        pmu_counter_enable(i);
    }
    pmu_cycle_enable(true);
}
   80860:	d65f03c0 	ret

0000000000080864 <pmu_sample>:
    return (size_t) bit_extract(MRS(PMCR_EL0), PMCR_N_OFF, PMCR_N_LEN);
   80864:	d53b9c00 	mrs	x0, pmcr_el0
   80868:	d34b3c06 	ubfx	x6, x0, #11, #5

void pmu_sample() {
    size_t n = pmu_num_counters();
    for(int i = 0; i < n; i++){
   8086c:	f275101f 	tst	x0, #0xf800
   80870:	54000240 	b.eq	808b8 <pmu_sample+0x54>  // b.none
   80874:	90000405 	adrp	x5, 100000 <pmu_used_counters>
   80878:	90000404 	adrp	x4, 100000 <pmu_used_counters>
   8087c:	910000a5 	add	x5, x5, #0x0
   80880:	91198084 	add	x4, x4, #0x660
   80884:	d2800001 	mov	x1, #0x0                   	// #0
        pmu_samples[i][sample_count] = pmu_counter_get(i);
   80888:	f94004a3 	ldr	x3, [x5, #8]
    MSR(PMSELR_EL0, counter);
   8088c:	d51b9ca1 	msr	pmselr_el0, x1
    return MRS(PMXEVCNTR_EL0);
   80890:	d53b9d42 	mrs	x2, pmxevcntr_el0
   80894:	937f7c20 	sbfiz	x0, x1, #1, #32
   80898:	8b21c000 	add	x0, x0, w1, sxtw
   8089c:	d37df000 	lsl	x0, x0, #3
   808a0:	8b21c000 	add	x0, x0, w1, sxtw
    for(int i = 0; i < n; i++){
   808a4:	91000421 	add	x1, x1, #0x1
        pmu_samples[i][sample_count] = pmu_counter_get(i);
   808a8:	8b000c60 	add	x0, x3, x0, lsl #3
   808ac:	f8207882 	str	x2, [x4, x0, lsl #3]
    for(int i = 0; i < n; i++){
   808b0:	eb06003f 	cmp	x1, x6
   808b4:	54fffea1 	b.ne	80888 <pmu_sample+0x24>  // b.any
    }
}
   808b8:	d65f03c0 	ret
   808bc:	d503201f 	nop

00000000000808c0 <pmu_setup>:

void pmu_setup(size_t start, size_t n) {
   808c0:	aa0003e3 	mov	x3, x0
    pmu_setup_counters(n, &sample_events[start]);
   808c4:	900000a2 	adrp	x2, 94000 <__any_on>
   808c8:	913dc042 	add	x2, x2, #0xf70
void pmu_setup(size_t start, size_t n) {
   808cc:	a9bf7bfd 	stp	x29, x30, [sp, #-16]!
   808d0:	aa0103e0 	mov	x0, x1
   808d4:	910003fd 	mov	x29, sp
    pmu_setup_counters(n, &sample_events[start]);
   808d8:	8b030c41 	add	x1, x2, x3, lsl #3
   808dc:	97ffffc9 	bl	80800 <pmu_setup_counters>
    unsigned long pmcr = MRS(PMCR_EL0);
   808e0:	d53b9c00 	mrs	x0, pmcr_el0
    MSR(PMCR_EL0, pmcr | 0x6);
   808e4:	b27f0400 	orr	x0, x0, #0x6
   808e8:	d51b9c00 	msr	pmcr_el0, x0
    MSR(PMCR_EL0, 0x1);
   808ec:	52800020 	mov	w0, #0x1                   	// #1
   808f0:	d51b9c00 	msr	pmcr_el0, x0
    pmu_reset();
    pmu_start();
}
   808f4:	a8c17bfd 	ldp	x29, x30, [sp], #16
   808f8:	d65f03c0 	ret
   808fc:	d503201f 	nop

0000000000080900 <print_samples_latency>:
        printf(SAMPLE_FORMAT, pmu_samples[j][i]);
    }
    //printf(SAMPLE_FORMAT, pmu_samples[31][i]);
}

void print_samples_latency() {
   80900:	a9b97bfd 	stp	x29, x30, [sp, #-112]!

    printf("--------------------------------\n");
   80904:	900000a0 	adrp	x0, 94000 <__any_on>
   80908:	91372000 	add	x0, x0, #0xdc8
void print_samples_latency() {
   8090c:	910003fd 	mov	x29, sp
   80910:	a90153f3 	stp	x19, x20, [sp, #16]
    printf(HEADER_FORMAT, "sample");
   80914:	900000b3 	adrp	x19, 94000 <__any_on>
   80918:	9137e273 	add	x19, x19, #0xdf8
void print_samples_latency() {
   8091c:	a9025bf5 	stp	x21, x22, [sp, #32]
    for (size_t i = 0; i < pmu_used_counters; i++) {
   80920:	90000416 	adrp	x22, 100000 <pmu_used_counters>
void print_samples_latency() {
   80924:	a90363f7 	stp	x23, x24, [sp, #48]
   80928:	a9046bf9 	stp	x25, x26, [sp, #64]
    printf("--------------------------------\n");
   8092c:	9400063d 	bl	82220 <puts>
    printf(HEADER_FORMAT, "sample");
   80930:	aa1303e0 	mov	x0, x19
   80934:	900000a1 	adrp	x1, 94000 <__any_on>
   80938:	9137c021 	add	x1, x1, #0xdf0
   8093c:	940005d1 	bl	82080 <printf>
    printf(HEADER_FORMAT, "execution_cycles");
   80940:	aa1303e0 	mov	x0, x19
   80944:	900000a1 	adrp	x1, 94000 <__any_on>
   80948:	91380021 	add	x1, x1, #0xe00
   8094c:	940005cd 	bl	82080 <printf>
    for (size_t i = 0; i < pmu_used_counters; i++) {
   80950:	f94002c0 	ldr	x0, [x22]
   80954:	910002d6 	add	x22, x22, #0x0
   80958:	b4000500 	cbz	x0, 809f8 <print_samples_latency+0xf8>
   8095c:	900000b8 	adrp	x24, 94000 <__any_on>
   80960:	900000b7 	adrp	x23, 94000 <__any_on>
        descr = descr ? descr : "";
   80964:	900000b5 	adrp	x21, 94000 <__any_on>
        const char * priv = priv_code == 0xc8 ? "_el2" : 
   80968:	900000b4 	adrp	x20, 94000 <__any_on>
   8096c:	900000b9 	adrp	x25, 94000 <__any_on>
   80970:	913dc318 	add	x24, x24, #0xf70
   80974:	913862f7 	add	x23, x23, #0xe18
        descr = descr ? descr : "";
   80978:	9137a2b5 	add	x21, x21, #0xde8
        const char * priv = priv_code == 0xc8 ? "_el2" : 
   8097c:	9136c294 	add	x20, x20, #0xdb0
   80980:	91370339 	add	x25, x25, #0xdc0
    for (size_t i = 0; i < pmu_used_counters; i++) {
   80984:	d280001a 	mov	x26, #0x0                   	// #0
    MSR(PMSELR_EL0, counter);
   80988:	d51b9cba 	msr	pmselr_el0, x26
   8098c:	d5033a9f 	dsb	ishst
    return MRS(PMXEVTYPER_EL0);
   80990:	d53b9d24 	mrs	x4, pmxevtyper_el0
        char const * descr =  pmu_event_descr[event & 0xffff]; 
   80994:	9100c301 	add	x1, x24, #0x30
   80998:	92403c83 	and	x3, x4, #0xffff
        uint32_t priv_code = (event >> 24) & 0xc8;
   8099c:	52801905 	mov	w5, #0xc8                  	// #200
        const char * priv = priv_code == 0xc8 ? "_el2" : 
   809a0:	900000a0 	adrp	x0, 94000 <__any_on>
        uint32_t priv_code = (event >> 24) & 0xc8;
   809a4:	0a4460a5 	and	w5, w5, w4, lsr #24
        const char * priv = priv_code == 0xc8 ? "_el2" : 
   809a8:	9136e006 	add	x6, x0, #0xdb8
        char const * descr =  pmu_event_descr[event & 0xffff]; 
   809ac:	f8637823 	ldr	x3, [x1, x3, lsl #3]
        snprintf(buf, COL_SIZE-1, "%s%s", descr, priv);
   809b0:	aa1703e2 	mov	x2, x23
   809b4:	910163e0 	add	x0, sp, #0x58
    for (size_t i = 0; i < pmu_used_counters; i++) {
   809b8:	9100075a 	add	x26, x26, #0x1
        descr = descr ? descr : "";
   809bc:	f100007f 	cmp	x3, #0x0
        const char * priv = priv_code == 0xc8 ? "_el2" : 
   809c0:	aa1403e4 	mov	x4, x20
        descr = descr ? descr : "";
   809c4:	9a8302a3 	csel	x3, x21, x3, eq	// eq = none
        snprintf(buf, COL_SIZE-1, "%s%s", descr, priv);
   809c8:	d2800261 	mov	x1, #0x13                  	// #19
        const char * priv = priv_code == 0xc8 ? "_el2" : 
   809cc:	710320bf 	cmp	w5, #0xc8
   809d0:	54000060 	b.eq	809dc <print_samples_latency+0xdc>  // b.none
   809d4:	710020bf 	cmp	w5, #0x8
   809d8:	9a9900c4 	csel	x4, x6, x25, eq	// eq = none
        snprintf(buf, COL_SIZE-1, "%s%s", descr, priv);
   809dc:	94000791 	bl	82820 <snprintf>
        printf(HEADER_FORMAT, buf);
   809e0:	910163e1 	add	x1, sp, #0x58
   809e4:	aa1303e0 	mov	x0, x19
   809e8:	940005a6 	bl	82080 <printf>
    for (size_t i = 0; i < pmu_used_counters; i++) {
   809ec:	f94002c0 	ldr	x0, [x22]
   809f0:	eb00035f 	cmp	x26, x0
   809f4:	54fffca3 	b.cc	80988 <print_samples_latency+0x88>  // b.lo, b.ul, b.last
    pmu_print_header();
    printf("\n");
   809f8:	90000418 	adrp	x24, 100000 <pmu_used_counters>
   809fc:	900000b5 	adrp	x21, 94000 <__any_on>

    for(size_t i = 0; i < NUM_SAMPLES; i++) {
        printf(SAMPLE_FORMAT, i);
        printf(SAMPLE_FORMAT, exec_time_samples[i]);
   80a00:	910042d9 	add	x25, x22, #0x10
   80a04:	91198318 	add	x24, x24, #0x660
   80a08:	913882b5 	add	x21, x21, #0xe20
    for(size_t i = 0; i < NUM_SAMPLES; i++) {
   80a0c:	d2800017 	mov	x23, #0x0                   	// #0
    printf("\n");
   80a10:	52800140 	mov	w0, #0xa                   	// #10
   80a14:	940005bf 	bl	82110 <putchar>
        printf(SAMPLE_FORMAT, i);
   80a18:	aa1703e1 	mov	x1, x23
   80a1c:	aa1503e0 	mov	x0, x21
   80a20:	94000598 	bl	82080 <printf>
        printf(SAMPLE_FORMAT, exec_time_samples[i]);
   80a24:	f8777b21 	ldr	x1, [x25, x23, lsl #3]
   80a28:	aa1503e0 	mov	x0, x21
   80a2c:	94000595 	bl	82080 <printf>
    for (size_t j = 0; j < pmu_used_counters; j++) {
   80a30:	f94002c0 	ldr	x0, [x22]
   80a34:	b4000160 	cbz	x0, 80a60 <print_samples_latency+0x160>
   80a38:	aa1803f4 	mov	x20, x24
   80a3c:	d2800013 	mov	x19, #0x0                   	// #0
        printf(SAMPLE_FORMAT, pmu_samples[j][i]);
   80a40:	f9400281 	ldr	x1, [x20]
   80a44:	aa1503e0 	mov	x0, x21
    for (size_t j = 0; j < pmu_used_counters; j++) {
   80a48:	91000673 	add	x19, x19, #0x1
   80a4c:	91190294 	add	x20, x20, #0x640
        printf(SAMPLE_FORMAT, pmu_samples[j][i]);
   80a50:	9400058c 	bl	82080 <printf>
    for (size_t j = 0; j < pmu_used_counters; j++) {
   80a54:	f94002c0 	ldr	x0, [x22]
   80a58:	eb00027f 	cmp	x19, x0
   80a5c:	54ffff23 	b.cc	80a40 <print_samples_latency+0x140>  // b.lo, b.ul, b.last
        pmu_print_samples(i);
        
        printf("\n");
   80a60:	52800140 	mov	w0, #0xa                   	// #10
    for(size_t i = 0; i < NUM_SAMPLES; i++) {
   80a64:	910006f7 	add	x23, x23, #0x1
        printf("\n");
   80a68:	940005aa 	bl	82110 <putchar>
    for(size_t i = 0; i < NUM_SAMPLES; i++) {
   80a6c:	91002318 	add	x24, x24, #0x8
   80a70:	f10322ff 	cmp	x23, #0xc8
   80a74:	54fffd21 	b.ne	80a18 <print_samples_latency+0x118>  // b.any
    }
    
}
   80a78:	a94153f3 	ldp	x19, x20, [sp, #16]
   80a7c:	a9425bf5 	ldp	x21, x22, [sp, #32]
   80a80:	a94363f7 	ldp	x23, x24, [sp, #48]
   80a84:	a9446bf9 	ldp	x25, x26, [sp, #64]
   80a88:	a8c77bfd 	ldp	x29, x30, [sp], #112
   80a8c:	d65f03c0 	ret

0000000000080a90 <timer_handler>:

extern uint64_t TIMER_FREQ;

static inline void timer_disable()
{
    MSR(CNTV_CTL_EL0, 0);
   80a90:	52800000 	mov	w0, #0x0                   	// #0
   80a94:	d51be320 	msr	cntv_ctl_el0, x0

void timer_handler(unsigned id){

    timer_disable();
    next_tick = timer_set(TIMER_INTERVAL);
   80a98:	d0001400 	adrp	x0, 302000 <irq_handlers+0x1370>
   80a9c:	d2869b61 	mov	x1, #0x34db                	// #13531
   80aa0:	f2baf6c1 	movk	x1, #0xd7b6, lsl #16
   80aa4:	f9465400 	ldr	x0, [x0, #3240]
   80aa8:	f2dbd041 	movk	x1, #0xde82, lsl #32
   80aac:	f2e86361 	movk	x1, #0x431b, lsl #48
   80ab0:	9bc17c00 	umulh	x0, x0, x1
   80ab4:	d352fc00 	lsr	x0, x0, #18
}


static inline uint64_t timer_set(uint64_t n)
{
    MSR(CNTV_TVAL_EL0, n);
   80ab8:	d51be300 	msr	cntv_tval_el0, x0
    MSR(CNTV_CTL_EL0, 1);
   80abc:	52800020 	mov	w0, #0x1                   	// #1
   80ac0:	d51be320 	msr	cntv_ctl_el0, x0
    return MRS(CNTV_CVAL_EL0);
   80ac4:	d53be341 	mrs	x1, cntv_cval_el0
   80ac8:	90000400 	adrp	x0, 100000 <pmu_used_counters>
   80acc:	f9032801 	str	x1, [x0, #1616]
    asm volatile("ic iallu\n\t");
   80ad0:	d508751f 	ic	iallu
}
   80ad4:	d65f03c0 	ret
   80ad8:	d503201f 	nop
   80adc:	d503201f 	nop

0000000000080ae0 <warmup_caches>:

void warmup_caches()
{
    for(int warm_samp = 0; warm_samp< NUM_WARMUPS; warm_samp++)
   80ae0:	90000c04 	adrp	x4, 200000 <cache_l2>
   80ae4:	91000084 	add	x4, x4, #0x0
        for(int i=0; i<NUM_SUBSETS; i++){
   80ae8:	52800c85 	mov	w5, #0x64                  	// #100
   80aec:	52800003 	mov	w3, #0x0                   	// #0
            for (size_t j = 0; j < SUBSET_SIZE; j+= CACHE_LINE_SIZE) {
                cache_l2[i][j] = j;
   80af0:	93707c62 	sbfiz	x2, x3, #16, #32
            for (size_t j = 0; j < SUBSET_SIZE; j+= CACHE_LINE_SIZE) {
   80af4:	d2800000 	mov	x0, #0x0                   	// #0
                cache_l2[i][j] = j;
   80af8:	8b020082 	add	x2, x4, x2
   80afc:	d503201f 	nop
   80b00:	12001c01 	and	w1, w0, #0xff
   80b04:	38206841 	strb	w1, [x2, x0]
            for (size_t j = 0; j < SUBSET_SIZE; j+= CACHE_LINE_SIZE) {
   80b08:	91010000 	add	x0, x0, #0x40
   80b0c:	f140401f 	cmp	x0, #0x10, lsl #12
   80b10:	54ffff81 	b.ne	80b00 <warmup_caches+0x20>  // b.any
        for(int i=0; i<NUM_SUBSETS; i++){
   80b14:	11000463 	add	w3, w3, #0x1
   80b18:	7100407f 	cmp	w3, #0x10
   80b1c:	54fffea1 	b.ne	80af0 <warmup_caches+0x10>  // b.any
    for(int warm_samp = 0; warm_samp< NUM_WARMUPS; warm_samp++)
   80b20:	710004a5 	subs	w5, w5, #0x1
   80b24:	54fffe41 	b.ne	80aec <warmup_caches+0xc>  // b.any
            }
        }
}
   80b28:	d65f03c0 	ret
   80b2c:	00000000 	udf	#0

0000000000080b30 <main>:
#include <sysregs.h>

extern uint64_t master_cpu;

static inline uint64_t get_cpuid(){
    uint64_t cpuid = MRS(MPIDR_EL1);
   80b30:	d53800a1 	mrs	x1, mpidr_el1
    return cpuid & MPIDR_CPU_MASK;
}

static bool cpu_is_master() {
    return get_cpuid() == master_cpu;
   80b34:	d00000a0 	adrp	x0, 96000 <JIS_state_table+0x70>

void main(void){

    if(!cpu_is_master()) {
   80b38:	f940f400 	ldr	x0, [x0, #488]
   80b3c:	eb21001f 	cmp	x0, w1, uxtb
   80b40:	54000e21 	b.ne	80d04 <main+0x1d4>  // b.any
void main(void){
   80b44:	a9ba7bfd 	stp	x29, x30, [sp, #-96]!
   80b48:	910003fd 	mov	x29, sp
   80b4c:	a90153f3 	stp	x19, x20, [sp, #16]
   80b50:	90000413 	adrp	x19, 100000 <pmu_used_counters>
   80b54:	91000273 	add	x19, x19, #0x0
   80b58:	90000414 	adrp	x20, 100000 <pmu_used_counters>
   80b5c:	91198294 	add	x20, x20, #0x660
   80b60:	a9025bf5 	stp	x21, x22, [sp, #32]
   80b64:	900000b6 	adrp	x22, 94000 <__any_on>
   80b68:	900000b5 	adrp	x21, 94000 <__any_on>
   80b6c:	913902d6 	add	x22, x22, #0xe40
   80b70:	913dc2b5 	add	x21, x21, #0xf70
   80b74:	a90363f7 	stp	x23, x24, [sp, #48]
   80b78:	900000b7 	adrp	x23, 94000 <__any_on>
   80b7c:	9138a2f7 	add	x23, x23, #0xe28
   80b80:	a9046bf9 	stp	x25, x26, [sp, #64]
                    }
                }
                final_cycle = pmu_cycle_get();
                pmu_sample();
                exec_cycles = final_cycle - initial_cycle;
                exec_time_samples[sample_count] = exec_cycles;
   80b84:	91004279 	add	x25, x19, #0x10
            pmu_setup(i, sample_events_size - i);
   80b88:	d28000b8 	mov	x24, #0x5                   	// #5
void main(void){
   80b8c:	a90573fb 	stp	x27, x28, [sp, #80]
   80b90:	90000c1b 	adrp	x27, 200000 <cache_l2>
   80b94:	9100037b 	add	x27, x27, #0x0
        printf("Press 's' to start...\n");
   80b98:	aa1703e0 	mov	x0, x23
   80b9c:	940005a1 	bl	82220 <puts>
        while(uart_getchar() != 's');
   80ba0:	940000f8 	bl	80f80 <uart_getchar>
   80ba4:	12001c00 	and	w0, w0, #0xff
   80ba8:	7101cc1f 	cmp	w0, #0x73
   80bac:	54ffffa1 	b.ne	80ba0 <main+0x70>  // b.any
        printf("\nTesting %d/%d subsets\n", num_acc_subsets, NUM_SUBSETS);        
   80bb0:	aa1603e0 	mov	x0, x22
   80bb4:	52800202 	mov	w2, #0x10                  	// #16
   80bb8:	52800141 	mov	w1, #0xa                   	// #10
   80bbc:	94000531 	bl	82080 <printf>
   80bc0:	52800c84 	mov	w4, #0x64                  	// #100
        for(int i=0; i<NUM_SUBSETS; i++){
   80bc4:	52800003 	mov	w3, #0x0                   	// #0
                cache_l2[i][j] = j;
   80bc8:	93707c62 	sbfiz	x2, x3, #16, #32
            for (size_t j = 0; j < SUBSET_SIZE; j+= CACHE_LINE_SIZE) {
   80bcc:	d2800000 	mov	x0, #0x0                   	// #0
                cache_l2[i][j] = j;
   80bd0:	8b020362 	add	x2, x27, x2
   80bd4:	d503201f 	nop
   80bd8:	12001c01 	and	w1, w0, #0xff
   80bdc:	38206841 	strb	w1, [x2, x0]
            for (size_t j = 0; j < SUBSET_SIZE; j+= CACHE_LINE_SIZE) {
   80be0:	91010000 	add	x0, x0, #0x40
   80be4:	f140401f 	cmp	x0, #0x10, lsl #12
   80be8:	54ffff81 	b.ne	80bd8 <main+0xa8>  // b.any
        for(int i=0; i<NUM_SUBSETS; i++){
   80bec:	11000463 	add	w3, w3, #0x1
   80bf0:	7100407f 	cmp	w3, #0x10
   80bf4:	54fffea1 	b.ne	80bc8 <main+0x98>  // b.any
    for(int warm_samp = 0; warm_samp< NUM_WARMUPS; warm_samp++)
   80bf8:	71000484 	subs	w4, w4, #0x1
   80bfc:	54fffe41 	b.ne	80bc4 <main+0x94>  // b.any
        size_t i = 0;
   80c00:	d280001c 	mov	x28, #0x0                   	// #0
    MSR(PMCR_EL0, 0x1);
   80c04:	5280003a 	mov	w26, #0x1                   	// #1
    pmu_setup_counters(n, &sample_events[start]);
   80c08:	8b1c0ea1 	add	x1, x21, x28, lsl #3
   80c0c:	cb1c0300 	sub	x0, x24, x28
            sample_count = 0;
   80c10:	f900067f 	str	xzr, [x19, #8]
    pmu_setup_counters(n, &sample_events[start]);
   80c14:	97fffefb 	bl	80800 <pmu_setup_counters>
    unsigned long pmcr = MRS(PMCR_EL0);
   80c18:	d53b9c00 	mrs	x0, pmcr_el0
    MSR(PMCR_EL0, pmcr | 0x6);
   80c1c:	b27f0400 	orr	x0, x0, #0x6
   80c20:	d51b9c00 	msr	pmcr_el0, x0
    MSR(PMCR_EL0, 0x1);
   80c24:	d51b9c1a 	msr	pmcr_el0, x26
            while(sample_count < NUM_SAMPLES) {
   80c28:	f9400660 	ldr	x0, [x19, #8]
   80c2c:	f1031c1f 	cmp	x0, #0xc7
   80c30:	540005c8 	b.hi	80ce8 <main+0x1b8>  // b.pmore
    unsigned long pmcr = MRS(PMCR_EL0);
   80c34:	d53b9c00 	mrs	x0, pmcr_el0
    MSR(PMCR_EL0, pmcr | 0x6);
   80c38:	b27f0400 	orr	x0, x0, #0x6
   80c3c:	d51b9c00 	msr	pmcr_el0, x0
    }
}

static inline uint64_t pmu_cycle_get(){
    uint64_t val = 0;
    return MRS(PMCCNTR_EL0);
   80c40:	d53b9d05 	mrs	x5, pmccntr_el0
   80c44:	d2800143 	mov	x3, #0xa                   	// #10
                    for(int i=0; i<num_acc_subsets; i++){
   80c48:	52800004 	mov	w4, #0x0                   	// #0
                            cache_l2[i][j] = j;
   80c4c:	93707c82 	sbfiz	x2, x4, #16, #32
                        for (size_t j = 0; j < SUBSET_SIZE; j+= CACHE_LINE_SIZE) {
   80c50:	d2800000 	mov	x0, #0x0                   	// #0
                            cache_l2[i][j] = j;
   80c54:	8b020362 	add	x2, x27, x2
   80c58:	12001c01 	and	w1, w0, #0xff
   80c5c:	38206841 	strb	w1, [x2, x0]
                        for (size_t j = 0; j < SUBSET_SIZE; j+= CACHE_LINE_SIZE) {
   80c60:	91010000 	add	x0, x0, #0x40
   80c64:	f140401f 	cmp	x0, #0x10, lsl #12
   80c68:	54ffff81 	b.ne	80c58 <main+0x128>  // b.any
                    for(int i=0; i<num_acc_subsets; i++){
   80c6c:	11000484 	add	w4, w4, #0x1
   80c70:	7100289f 	cmp	w4, #0xa
   80c74:	54fffec1 	b.ne	80c4c <main+0x11c>  // b.any
                for(size_t it_idx = 0; it_idx < MAX_ITER; it_idx++){
   80c78:	f1000463 	subs	x3, x3, #0x1
   80c7c:	54fffe61 	b.ne	80c48 <main+0x118>  // b.any
   80c80:	d53b9d01 	mrs	x1, pmccntr_el0
    return (size_t) bit_extract(MRS(PMCR_EL0), PMCR_N_OFF, PMCR_N_LEN);
   80c84:	d53b9c00 	mrs	x0, pmcr_el0
   80c88:	d34b3c02 	ubfx	x2, x0, #11, #5
    for(int i = 0; i < n; i++){
   80c8c:	f275101f 	tst	x0, #0xf800
   80c90:	540001a0 	b.eq	80cc4 <main+0x194>  // b.none
        pmu_samples[i][sample_count] = pmu_counter_get(i);
   80c94:	f9400666 	ldr	x6, [x19, #8]
    MSR(PMSELR_EL0, counter);
   80c98:	d51b9ca3 	msr	pmselr_el0, x3
    return MRS(PMXEVCNTR_EL0);
   80c9c:	d53b9d44 	mrs	x4, pmxevcntr_el0
   80ca0:	937f7c60 	sbfiz	x0, x3, #1, #32
   80ca4:	8b23c000 	add	x0, x0, w3, sxtw
   80ca8:	d37df000 	lsl	x0, x0, #3
   80cac:	8b23c000 	add	x0, x0, w3, sxtw
    for(int i = 0; i < n; i++){
   80cb0:	91000463 	add	x3, x3, #0x1
        pmu_samples[i][sample_count] = pmu_counter_get(i);
   80cb4:	8b000cc0 	add	x0, x6, x0, lsl #3
   80cb8:	f8207a84 	str	x4, [x20, x0, lsl #3]
    for(int i = 0; i < n; i++){
   80cbc:	eb02007f 	cmp	x3, x2
   80cc0:	54fffea1 	b.ne	80c94 <main+0x164>  // b.any
                exec_time_samples[sample_count] = exec_cycles;
   80cc4:	f9400662 	ldr	x2, [x19, #8]
                exec_cycles = final_cycle - initial_cycle;
   80cc8:	cb050021 	sub	x1, x1, x5
                sample_count++;
   80ccc:	f9400660 	ldr	x0, [x19, #8]
                exec_time_samples[sample_count] = exec_cycles;
   80cd0:	f8227b21 	str	x1, [x25, x2, lsl #3]
                sample_count++;
   80cd4:	91000400 	add	x0, x0, #0x1
   80cd8:	f9000660 	str	x0, [x19, #8]
            while(sample_count < NUM_SAMPLES) {
   80cdc:	f9400660 	ldr	x0, [x19, #8]
   80ce0:	f1031c1f 	cmp	x0, #0xc7
   80ce4:	54fffa89 	b.ls	80c34 <main+0x104>  // b.plast
    return (size_t) bit_extract(MRS(PMCR_EL0), PMCR_N_OFF, PMCR_N_LEN);
   80ce8:	d53b9c00 	mrs	x0, pmcr_el0
   80cec:	d34b3c00 	ubfx	x0, x0, #11, #5
            }
        
            i += pmu_num_counters();
   80cf0:	8b00039c 	add	x28, x28, x0
            print_samples_latency();
   80cf4:	97ffff03 	bl	80900 <print_samples_latency>
        while(i < sample_events_size){
   80cf8:	f100139f 	cmp	x28, #0x4
   80cfc:	54fff4e8 	b.hi	80b98 <main+0x68>  // b.pmore
   80d00:	17ffffc2 	b	80c08 <main+0xd8>
   80d04:	d65f03c0 	ret
	...

0000000000080d10 <irq_set_handler>:
#include <stddef.h>

irq_handler_t irq_handlers[IRQ_NUM]; 

void irq_set_handler(unsigned id, irq_handler_t handler){
    if(id < IRQ_NUM)
   80d10:	710ffc1f 	cmp	w0, #0x3ff
   80d14:	54000088 	b.hi	80d24 <irq_set_handler+0x14>  // b.pmore
        irq_handlers[id] = handler;
   80d18:	90001402 	adrp	x2, 300000 <irqlat_end_samples>
   80d1c:	91324042 	add	x2, x2, #0xc90
   80d20:	f8205841 	str	x1, [x2, w0, uxtw #3]
}
   80d24:	d65f03c0 	ret
   80d28:	d503201f 	nop
   80d2c:	d503201f 	nop

0000000000080d30 <irq_handle>:

void irq_handle(unsigned id){
   80d30:	2a0003e1 	mov	w1, w0
    if(id < IRQ_NUM && irq_handlers[id] != NULL)
   80d34:	710ffc1f 	cmp	w0, #0x3ff
   80d38:	540000e8 	b.hi	80d54 <irq_handle+0x24>  // b.pmore
   80d3c:	90001402 	adrp	x2, 300000 <irqlat_end_samples>
   80d40:	91324042 	add	x2, x2, #0xc90
   80d44:	f8615841 	ldr	x1, [x2, w1, uxtw #3]
   80d48:	b4000061 	cbz	x1, 80d54 <irq_handle+0x24>
        irq_handlers[id](id);
   80d4c:	aa0103f0 	mov	x16, x1
   80d50:	d61f0200 	br	x16
}
   80d54:	d65f03c0 	ret
	...

0000000000080d60 <_read>:
#include <cpu.h>
#include <fences.h>
#include <wfi.h>

int _read(int file, char *ptr, int len)
{
   80d60:	a9bd7bfd 	stp	x29, x30, [sp, #-48]!
   80d64:	910003fd 	mov	x29, sp
   80d68:	f90013f5 	str	x21, [sp, #32]
   80d6c:	2a0203f5 	mov	w21, w2
    int i;
    for (i = 0; i < len; ++i)
   80d70:	7100005f 	cmp	w2, #0x0
   80d74:	5400014d 	b.le	80d9c <_read+0x3c>
   80d78:	a90153f3 	stp	x19, x20, [sp, #16]
   80d7c:	aa0103f3 	mov	x19, x1
   80d80:	8b22c034 	add	x20, x1, w2, sxtw
   80d84:	d503201f 	nop
    {
        ptr[i] = uart_getchar();
   80d88:	9400007e 	bl	80f80 <uart_getchar>
   80d8c:	38001660 	strb	w0, [x19], #1
    for (i = 0; i < len; ++i)
   80d90:	eb14027f 	cmp	x19, x20
   80d94:	54ffffa1 	b.ne	80d88 <_read+0x28>  // b.any
   80d98:	a94153f3 	ldp	x19, x20, [sp, #16]
    }

    return len;
}
   80d9c:	2a1503e0 	mov	w0, w21
   80da0:	f94013f5 	ldr	x21, [sp, #32]
   80da4:	a8c37bfd 	ldp	x29, x30, [sp], #48
   80da8:	d65f03c0 	ret
   80dac:	d503201f 	nop

0000000000080db0 <_write>:

int _write(int file, char *ptr, int len)
{
   80db0:	a9bd7bfd 	stp	x29, x30, [sp, #-48]!
   80db4:	910003fd 	mov	x29, sp
   80db8:	a90153f3 	stp	x19, x20, [sp, #16]
   80dbc:	8b22c034 	add	x20, x1, w2, sxtw
   80dc0:	f90013f5 	str	x21, [sp, #32]
   80dc4:	2a0203f5 	mov	w21, w2
    int i;
    for (i = 0; i < len; ++i)
   80dc8:	7100005f 	cmp	w2, #0x0
   80dcc:	5400022d 	b.le	80e10 <_write+0x60>
   80dd0:	aa0103f3 	mov	x19, x1
   80dd4:	14000005 	b	80de8 <_write+0x38>
   80dd8:	91000673 	add	x19, x19, #0x1
    {
        if (ptr[i] == '\n')
        {
            uart_putc('\r');
        }
        uart_putc(ptr[i]);
   80ddc:	94000066 	bl	80f74 <uart_putc>
    for (i = 0; i < len; ++i)
   80de0:	eb14027f 	cmp	x19, x20
   80de4:	54000160 	b.eq	80e10 <_write+0x60>  // b.none
        if (ptr[i] == '\n')
   80de8:	39400260 	ldrb	w0, [x19]
   80dec:	7100281f 	cmp	w0, #0xa
   80df0:	54ffff41 	b.ne	80dd8 <_write+0x28>  // b.any
            uart_putc('\r');
   80df4:	528001a0 	mov	w0, #0xd                   	// #13
   80df8:	9400005f 	bl	80f74 <uart_putc>
        uart_putc(ptr[i]);
   80dfc:	39400260 	ldrb	w0, [x19]
    for (i = 0; i < len; ++i)
   80e00:	91000673 	add	x19, x19, #0x1
        uart_putc(ptr[i]);
   80e04:	9400005c 	bl	80f74 <uart_putc>
    for (i = 0; i < len; ++i)
   80e08:	eb14027f 	cmp	x19, x20
   80e0c:	54fffee1 	b.ne	80de8 <_write+0x38>  // b.any
    }

    return len;
}
   80e10:	a94153f3 	ldp	x19, x20, [sp, #16]
   80e14:	2a1503e0 	mov	w0, w21
   80e18:	f94013f5 	ldr	x21, [sp, #32]
   80e1c:	a8c37bfd 	ldp	x29, x30, [sp], #48
   80e20:	d65f03c0 	ret

0000000000080e24 <_lseek>:

int _lseek(int file, int ptr, int dir)
{
   80e24:	a9bf7bfd 	stp	x29, x30, [sp, #-16]!
   80e28:	910003fd 	mov	x29, sp
    errno = ESPIPE;
   80e2c:	94000475 	bl	82000 <__errno>
   80e30:	aa0003e1 	mov	x1, x0
   80e34:	528003a2 	mov	w2, #0x1d                  	// #29
    return -1;
}
   80e38:	12800000 	mov	w0, #0xffffffff            	// #-1
    errno = ESPIPE;
   80e3c:	b9000022 	str	w2, [x1]
}
   80e40:	a8c17bfd 	ldp	x29, x30, [sp], #16
   80e44:	d65f03c0 	ret
   80e48:	d503201f 	nop
   80e4c:	d503201f 	nop

0000000000080e50 <_close>:

int _close(int file)
{
    return -1;
}
   80e50:	12800000 	mov	w0, #0xffffffff            	// #-1
   80e54:	d65f03c0 	ret
   80e58:	d503201f 	nop
   80e5c:	d503201f 	nop

0000000000080e60 <_fstat>:

int _fstat(int file, struct stat *st)
{
    st->st_mode = S_IFCHR;
   80e60:	52840002 	mov	w2, #0x2000                	// #8192
    return 0;
}
   80e64:	52800000 	mov	w0, #0x0                   	// #0
    st->st_mode = S_IFCHR;
   80e68:	b9000422 	str	w2, [x1, #4]
}
   80e6c:	d65f03c0 	ret

0000000000080e70 <_isatty>:

int _isatty(int fd)
{
   80e70:	a9bf7bfd 	stp	x29, x30, [sp, #-16]!
   80e74:	910003fd 	mov	x29, sp
    errno = ENOTTY;
   80e78:	94000462 	bl	82000 <__errno>
   80e7c:	aa0003e1 	mov	x1, x0
   80e80:	52800322 	mov	w2, #0x19                  	// #25
    return 0;
}
   80e84:	52800000 	mov	w0, #0x0                   	// #0
    errno = ENOTTY;
   80e88:	b9000022 	str	w2, [x1]
}
   80e8c:	a8c17bfd 	ldp	x29, x30, [sp], #16
   80e90:	d65f03c0 	ret

0000000000080e94 <_sbrk>:

void* _sbrk(int increment)
{
    extern char _heap_base;
    static char* heap_end = &_heap_base;
    char* current_heap_end = heap_end;
   80e94:	d00000a2 	adrp	x2, 96000 <JIS_state_table+0x70>
{
   80e98:	2a0003e1 	mov	w1, w0
    char* current_heap_end = heap_end;
   80e9c:	f940e840 	ldr	x0, [x2, #464]
    heap_end += increment;
   80ea0:	8b21c001 	add	x1, x0, w1, sxtw
   80ea4:	f900e841 	str	x1, [x2, #464]
    return current_heap_end;
}
   80ea8:	d65f03c0 	ret
   80eac:	d503201f 	nop

0000000000080eb0 <_exit>:
    DMB(ish);
   80eb0:	d5033bbf 	dmb	ish
   80eb4:	d503201f 	nop
#ifndef WFI_H
#define WFI_H

static inline void wfi(){
    asm volatile("wfi\n\t" ::: "memory");
   80eb8:	d503207f 	wfi
   80ebc:	17ffffff 	b	80eb8 <_exit+0x8>

0000000000080ec0 <_getpid>:
}

int _getpid(void)
{
  return 1;
}
   80ec0:	52800020 	mov	w0, #0x1                   	// #1
   80ec4:	d65f03c0 	ret
   80ec8:	d503201f 	nop
   80ecc:	d503201f 	nop

0000000000080ed0 <_kill>:

int _kill(int pid, int sig)
{
   80ed0:	a9bf7bfd 	stp	x29, x30, [sp, #-16]!
   80ed4:	910003fd 	mov	x29, sp
    errno = EINVAL;
   80ed8:	9400044a 	bl	82000 <__errno>
   80edc:	aa0003e1 	mov	x1, x0
   80ee0:	528002c2 	mov	w2, #0x16                  	// #22
    return -1;
}
   80ee4:	12800000 	mov	w0, #0xffffffff            	// #-1
    errno = EINVAL;
   80ee8:	b9000022 	str	w2, [x1]
}
   80eec:	a8c17bfd 	ldp	x29, x30, [sp], #16
   80ef0:	d65f03c0 	ret

0000000000080ef4 <_init>:

static bool init_done = false;
static spinlock_t init_lock = SPINLOCK_INITVAL;

__attribute__((weak))
void _init(){
   80ef4:	a9bd7bfd 	stp	x29, x30, [sp, #-48]!
static inline void spin_lock(spinlock_t* lock){

    uint32_t const ONE = 1;
    spinlock_t tmp;

    asm volatile (
   80ef8:	d0001400 	adrp	x0, 302000 <irq_handlers+0x1370>
   80efc:	52800021 	mov	w1, #0x1                   	// #1
   80f00:	910003fd 	mov	x29, sp
   80f04:	f9000bf3 	str	x19, [sp, #16]
   80f08:	91324013 	add	x19, x0, #0xc90
   80f0c:	885ffe62 	ldaxr	w2, [x19]
   80f10:	35ffffe2 	cbnz	w2, 80f0c <_init+0x18>
   80f14:	88027e61 	stxr	w2, w1, [x19]
   80f18:	35ffffa2 	cbnz	w2, 80f0c <_init+0x18>

    spin_lock(&init_lock);
    if(!init_done) {
   80f1c:	39401260 	ldrb	w0, [x19, #4]
   80f20:	b9002fe2 	str	w2, [sp, #44]
   80f24:	340000a0 	cbz	w0, 80f38 <_init+0x44>

}

static inline void spin_unlock(spinlock_t* lock){

    asm volatile ("stlr wzr, %0\n\t" :: "Q"(*lock));
   80f28:	889ffe7f 	stlr	wzr, [x19]
        init_done = true;
        uart_init();
    }
    spin_unlock(&init_lock);
    
    arch_init();
   80f2c:	940000e5 	bl	812c0 <arch_init>

    int ret = main();
   80f30:	97ffff00 	bl	80b30 <main>
    _exit(ret);
   80f34:	97ffffdf 	bl	80eb0 <_exit>
        init_done = true;
   80f38:	39001261 	strb	w1, [x19, #4]
        uart_init();
   80f3c:	94000005 	bl	80f50 <uart_init>
   80f40:	17fffffa 	b	80f28 <_init+0x34>
	...

0000000000080f50 <uart_init>:
#define VIRT_UART_BAUDRATE		    115200
#define VIRT_UART_FREQ		        3000000

void uart_init(){

    uart8250_init(VIRT_UART16550_ADDR, VIRT_UART_FREQ, VIRT_UART_BAUDRATE, 0, 4);
   80f50:	52984002 	mov	w2, #0xc200                	// #49664
   80f54:	5298d801 	mov	w1, #0xc6c0                	// #50880
   80f58:	d28a0800 	mov	x0, #0x5040                	// #20544
   80f5c:	72a00022 	movk	w2, #0x1, lsl #16
   80f60:	72a005a1 	movk	w1, #0x2d, lsl #16
   80f64:	f2bfc420 	movk	x0, #0xfe21, lsl #16
   80f68:	52800084 	mov	w4, #0x4                   	// #4
   80f6c:	52800003 	mov	w3, #0x0                   	// #0
   80f70:	1400008c 	b	811a0 <uart8250_init>

0000000000080f74 <uart_putc>:
}

void uart_putc(char c)
{
    uart8250_putc(c);
   80f74:	14000023 	b	81000 <uart8250_putc>
   80f78:	d503201f 	nop
   80f7c:	d503201f 	nop

0000000000080f80 <uart_getchar>:
}

char uart_getchar(void)
{
   80f80:	a9bf7bfd 	stp	x29, x30, [sp, #-16]!
   80f84:	910003fd 	mov	x29, sp
    return uart8250_getc();
   80f88:	9400003e 	bl	81080 <uart8250_getc>
}
   80f8c:	a8c17bfd 	ldp	x29, x30, [sp], #16
   80f90:	d65f03c0 	ret

0000000000080f94 <uart_enable_rxirq>:

void uart_enable_rxirq()
{
    uart8250_enable_rx_int();
   80f94:	14000070 	b	81154 <uart8250_enable_rx_int>
   80f98:	d503201f 	nop
   80f9c:	d503201f 	nop

0000000000080fa0 <uart_clear_rxirq>:
}

void uart_clear_rxirq()
{
    uart8250_interrupt_handler(); 
   80fa0:	14000055 	b	810f4 <uart8250_interrupt_handler>
	...

0000000000080fb0 <get_reg>:
static u32 uart8250_reg_width;
static u32 uart8250_reg_shift;

static volatile u32 get_reg(u32 num)
{
	u32 offset = num << uart8250_reg_shift;
   80fb0:	d0001401 	adrp	x1, 302000 <irq_handlers+0x1370>
   80fb4:	91326022 	add	x2, x1, #0xc98
   80fb8:	b94c9821 	ldr	w1, [x1, #3224]

	if (uart8250_reg_width == 1)
   80fbc:	b9400443 	ldr	w3, [x2, #4]
		return readb(uart8250_base + offset);
   80fc0:	f9400442 	ldr	x2, [x2, #8]
	u32 offset = num << uart8250_reg_shift;
   80fc4:	1ac12004 	lsl	w4, w0, w1
		return readb(uart8250_base + offset);
   80fc8:	1ac12000 	lsl	w0, w0, w1
	if (uart8250_reg_width == 1)
   80fcc:	7100047f 	cmp	w3, #0x1
   80fd0:	54000120 	b.eq	80ff4 <get_reg+0x44>  // b.none
	else if (uart8250_reg_width == 2)
   80fd4:	7100087f 	cmp	w3, #0x2
   80fd8:	54000060 	b.eq	80fe4 <get_reg+0x34>  // b.none
		return readw(uart8250_base + offset);
	else
		return readl(uart8250_base + offset);
   80fdc:	b8607840 	ldr	w0, [x2, x0, lsl #2]
}
   80fe0:	d65f03c0 	ret
		return readw(uart8250_base + offset);
   80fe4:	d37ff800 	lsl	x0, x0, #1
   80fe8:	78606840 	ldrh	w0, [x2, x0]
   80fec:	12003c00 	and	w0, w0, #0xffff
}
   80ff0:	d65f03c0 	ret
		return readb(uart8250_base + offset);
   80ff4:	38644840 	ldrb	w0, [x2, w4, uxtw]
   80ff8:	12001c00 	and	w0, w0, #0xff
}
   80ffc:	d65f03c0 	ret

0000000000081000 <uart8250_putc>:
	u32 offset = num << uart8250_reg_shift;
   81000:	b0001403 	adrp	x3, 302000 <irq_handlers+0x1370>
   81004:	91326061 	add	x1, x3, #0xc98
   81008:	528000a2 	mov	w2, #0x5                   	// #5
	else
		writel(val, uart8250_base + offset);
}

void uart8250_putc(char ch)
{
   8100c:	12001c00 	and	w0, w0, #0xff
	u32 offset = num << uart8250_reg_shift;
   81010:	b94c9863 	ldr	w3, [x3, #3224]
		return readl(uart8250_base + offset);
   81014:	f9400425 	ldr	x5, [x1, #8]
	if (uart8250_reg_width == 1)
   81018:	b9400421 	ldr	w1, [x1, #4]
		return readl(uart8250_base + offset);
   8101c:	1ac32042 	lsl	w2, w2, w3
		return readb(uart8250_base + offset);
   81020:	8b0200a6 	add	x6, x5, x2
		return readl(uart8250_base + offset);
   81024:	8b0208a4 	add	x4, x5, x2, lsl #2
		return readw(uart8250_base + offset);
   81028:	8b0204a3 	add	x3, x5, x2, lsl #1
	if (uart8250_reg_width == 1)
   8102c:	7100043f 	cmp	w1, #0x1
   81030:	540000a1 	b.ne	81044 <uart8250_putc+0x44>  // b.any
		return readb(uart8250_base + offset);
   81034:	394000c1 	ldrb	w1, [x6]
	while ((get_reg(UART_LSR_OFFSET) & UART_LSR_THRE) == 0)
   81038:	362fffe1 	tbz	w1, #5, 81034 <uart8250_putc+0x34>
		writeb(val, uart8250_base + offset);
   8103c:	390000a0 	strb	w0, [x5]
		;

	set_reg(UART_THR_OFFSET, ch);
}
   81040:	d65f03c0 	ret
	else if (uart8250_reg_width == 2)
   81044:	7100083f 	cmp	w1, #0x2
   81048:	54000120 	b.eq	8106c <uart8250_putc+0x6c>  // b.none
		return readl(uart8250_base + offset);
   8104c:	b9400082 	ldr	w2, [x4]
	while ((get_reg(UART_LSR_OFFSET) & UART_LSR_THRE) == 0)
   81050:	362fffa2 	tbz	w2, #5, 81044 <uart8250_putc+0x44>
	if (uart8250_reg_width == 1)
   81054:	7100043f 	cmp	w1, #0x1
   81058:	54ffff20 	b.eq	8103c <uart8250_putc+0x3c>  // b.none
	else if (uart8250_reg_width == 2)
   8105c:	7100083f 	cmp	w1, #0x2
   81060:	540000a0 	b.eq	81074 <uart8250_putc+0x74>  // b.none
		writel(val, uart8250_base + offset);
   81064:	b90000a0 	str	w0, [x5]
}
   81068:	d65f03c0 	ret
		return readw(uart8250_base + offset);
   8106c:	79400061 	ldrh	w1, [x3]
	while ((get_reg(UART_LSR_OFFSET) & UART_LSR_THRE) == 0)
   81070:	362fffe1 	tbz	w1, #5, 8106c <uart8250_putc+0x6c>
		writew(val, uart8250_base + offset);
   81074:	790000a0 	strh	w0, [x5]
}
   81078:	d65f03c0 	ret
   8107c:	d503201f 	nop

0000000000081080 <uart8250_getc>:
	u32 offset = num << uart8250_reg_shift;
   81080:	b0001401 	adrp	x1, 302000 <irq_handlers+0x1370>
   81084:	91326022 	add	x2, x1, #0xc98
   81088:	528000a0 	mov	w0, #0x5                   	// #5
   8108c:	b94c9821 	ldr	w1, [x1, #3224]
	if (uart8250_reg_width == 1)
   81090:	b9400443 	ldr	w3, [x2, #4]
		return readb(uart8250_base + offset);
   81094:	f9400442 	ldr	x2, [x2, #8]
	u32 offset = num << uart8250_reg_shift;
   81098:	1ac12004 	lsl	w4, w0, w1
		return readb(uart8250_base + offset);
   8109c:	1ac12000 	lsl	w0, w0, w1
	if (uart8250_reg_width == 1)
   810a0:	7100047f 	cmp	w3, #0x1
   810a4:	540001a0 	b.eq	810d8 <uart8250_getc+0x58>  // b.none
	else if (uart8250_reg_width == 2)
   810a8:	7100087f 	cmp	w3, #0x2
   810ac:	540000a0 	b.eq	810c0 <uart8250_getc+0x40>  // b.none
		return readl(uart8250_base + offset);
   810b0:	b8607840 	ldr	w0, [x2, x0, lsl #2]

int uart8250_getc(void)
{
	if (get_reg(UART_LSR_OFFSET) & UART_LSR_DR)
   810b4:	360001c0 	tbz	w0, #0, 810ec <uart8250_getc+0x6c>
		return readl(uart8250_base + offset);
   810b8:	b9400040 	ldr	w0, [x2]
		return get_reg(UART_RBR_OFFSET);
	return -1;
}
   810bc:	d65f03c0 	ret
		return readw(uart8250_base + offset);
   810c0:	d37ff800 	lsl	x0, x0, #1
   810c4:	78606840 	ldrh	w0, [x2, x0]
	if (get_reg(UART_LSR_OFFSET) & UART_LSR_DR)
   810c8:	36000120 	tbz	w0, #0, 810ec <uart8250_getc+0x6c>
		return readw(uart8250_base + offset);
   810cc:	79400040 	ldrh	w0, [x2]
   810d0:	12003c00 	and	w0, w0, #0xffff
}
   810d4:	d65f03c0 	ret
		return readb(uart8250_base + offset);
   810d8:	38644840 	ldrb	w0, [x2, w4, uxtw]
	if (get_reg(UART_LSR_OFFSET) & UART_LSR_DR)
   810dc:	36000080 	tbz	w0, #0, 810ec <uart8250_getc+0x6c>
		return readb(uart8250_base + offset);
   810e0:	39400040 	ldrb	w0, [x2]
   810e4:	12001c00 	and	w0, w0, #0xff
}
   810e8:	d65f03c0 	ret
	return -1;
   810ec:	12800000 	mov	w0, #0xffffffff            	// #-1
}
   810f0:	d65f03c0 	ret

00000000000810f4 <uart8250_interrupt_handler>:
	if (uart8250_reg_width == 1)
   810f4:	b0001400 	adrp	x0, 302000 <irq_handlers+0x1370>
   810f8:	91326000 	add	x0, x0, #0xc98

void uart8250_interrupt_handler(){
   810fc:	d10043ff 	sub	sp, sp, #0x10
	if (uart8250_reg_width == 1)
   81100:	b9400401 	ldr	w1, [x0, #4]
		return readb(uart8250_base + offset);
   81104:	f9400400 	ldr	x0, [x0, #8]
	if (uart8250_reg_width == 1)
   81108:	7100043f 	cmp	w1, #0x1
   8110c:	540001a0 	b.eq	81140 <uart8250_interrupt_handler+0x4c>  // b.none
	else if (uart8250_reg_width == 2)
   81110:	7100083f 	cmp	w1, #0x2
   81114:	540000c0 	b.eq	8112c <uart8250_interrupt_handler+0x38>  // b.none
		return readl(uart8250_base + offset);
   81118:	b9400000 	ldr	w0, [x0]
	volatile char c = get_reg(UART_RBR_OFFSET);
   8111c:	12001c00 	and	w0, w0, #0xff
   81120:	39003fe0 	strb	w0, [sp, #15]
}
   81124:	910043ff 	add	sp, sp, #0x10
   81128:	d65f03c0 	ret
		return readw(uart8250_base + offset);
   8112c:	79400000 	ldrh	w0, [x0]
	volatile char c = get_reg(UART_RBR_OFFSET);
   81130:	12001c00 	and	w0, w0, #0xff
   81134:	39003fe0 	strb	w0, [sp, #15]
}
   81138:	910043ff 	add	sp, sp, #0x10
   8113c:	d65f03c0 	ret
		return readb(uart8250_base + offset);
   81140:	39400000 	ldrb	w0, [x0]
   81144:	12001c00 	and	w0, w0, #0xff
	volatile char c = get_reg(UART_RBR_OFFSET);
   81148:	39003fe0 	strb	w0, [sp, #15]
}
   8114c:	910043ff 	add	sp, sp, #0x10
   81150:	d65f03c0 	ret

0000000000081154 <uart8250_enable_rx_int>:
	u32 offset = num << uart8250_reg_shift;
   81154:	b0001400 	adrp	x0, 302000 <irq_handlers+0x1370>
   81158:	91326003 	add	x3, x0, #0xc98
   8115c:	52800021 	mov	w1, #0x1                   	// #1
   81160:	b94c9800 	ldr	w0, [x0, #3224]
	if (uart8250_reg_width == 1)
   81164:	b9400462 	ldr	w2, [x3, #4]
		writeb(val, uart8250_base + offset);
   81168:	f9400463 	ldr	x3, [x3, #8]
	u32 offset = num << uart8250_reg_shift;
   8116c:	1ac02024 	lsl	w4, w1, w0
		writeb(val, uart8250_base + offset);
   81170:	1ac02020 	lsl	w0, w1, w0
	if (uart8250_reg_width == 1)
   81174:	6b01005f 	cmp	w2, w1
   81178:	540000e0 	b.eq	81194 <uart8250_enable_rx_int+0x40>  // b.none
	else if (uart8250_reg_width == 2)
   8117c:	7100085f 	cmp	w2, #0x2
   81180:	54000060 	b.eq	8118c <uart8250_enable_rx_int+0x38>  // b.none
		writel(val, uart8250_base + offset);
   81184:	b8207861 	str	w1, [x3, x0, lsl #2]

void uart8250_enable_rx_int(){
	set_reg(UART_IER_OFFSET, 1);
}
   81188:	d65f03c0 	ret
		writew(val, uart8250_base + offset);
   8118c:	78244861 	strh	w1, [x3, w4, uxtw]
}
   81190:	d65f03c0 	ret
		writeb(val, uart8250_base + offset);
   81194:	38244862 	strb	w2, [x3, w4, uxtw]
}
   81198:	d65f03c0 	ret
   8119c:	d503201f 	nop

00000000000811a0 <uart8250_init>:

int uart8250_init(unsigned long base, u32 in_freq, u32 baudrate, u32 reg_shift,
		  u32 reg_width)
{
   811a0:	a9bf7bfd 	stp	x29, x30, [sp, #-16]!
	u16 bdiv;

	uart8250_base	   = (volatile void *)base;
   811a4:	b0001401 	adrp	x1, 302000 <irq_handlers+0x1370>
   811a8:	91326026 	add	x6, x1, #0xc98
{
   811ac:	910003fd 	mov	x29, sp
   811b0:	aa0003e5 	mov	x5, x0
	uart8250_reg_shift = reg_shift;
   811b4:	b90c9823 	str	w3, [x1, #3224]
	u32 offset = num << uart8250_reg_shift;
   811b8:	52800028 	mov	w8, #0x1                   	// #1
   811bc:	52800067 	mov	w7, #0x3                   	// #3
   811c0:	528000e0 	mov	w0, #0x7                   	// #7
   811c4:	52800042 	mov	w2, #0x2                   	// #2
   811c8:	52800081 	mov	w1, #0x4                   	// #4
	uart8250_reg_width = reg_width;
   811cc:	b90004c4 	str	w4, [x6, #4]
	uart8250_base	   = (volatile void *)base;
   811d0:	f90004c5 	str	x5, [x6, #8]
	u32 offset = num << uart8250_reg_shift;
   811d4:	1ac3204d 	lsl	w13, w2, w3
   811d8:	1ac3202c 	lsl	w12, w1, w3
   811dc:	1ac3210e 	lsl	w14, w8, w3
   811e0:	1ac320e9 	lsl	w9, w7, w3
   811e4:	1ac3200b 	lsl	w11, w0, w3
		writeb(val, uart8250_base + offset);
   811e8:	1ac32042 	lsl	w2, w2, w3
   811ec:	1ac32021 	lsl	w1, w1, w3
   811f0:	1ac320ea 	lsl	w10, w7, w3
   811f4:	1ac32006 	lsl	w6, w0, w3
   811f8:	1ac32103 	lsl	w3, w8, w3
	if (uart8250_reg_width == 1)
   811fc:	6b08009f 	cmp	w4, w8
   81200:	540003e0 	b.eq	8127c <uart8250_init+0xdc>  // b.none
	else if (uart8250_reg_width == 2)
   81204:	7100089f 	cmp	w4, #0x2
   81208:	540001e0 	b.eq	81244 <uart8250_init+0xa4>  // b.none
		writel(val, uart8250_base + offset);
   8120c:	b82378bf 	str	wzr, [x5, x3, lsl #2]
   81210:	52801000 	mov	w0, #0x80                  	// #128
   81214:	b82a78a0 	str	w0, [x5, x10, lsl #2]
	/* Enable FIFO */
	set_reg(UART_FCR_OFFSET, 0x01);
	/* No modem control DTR RTS */
	set_reg(UART_MCR_OFFSET, 0x00);
	/* Clear line status */
	get_reg(UART_LSR_OFFSET);
   81218:	528000a0 	mov	w0, #0x5                   	// #5
		writel(val, uart8250_base + offset);
   8121c:	b82a78a7 	str	w7, [x5, x10, lsl #2]
   81220:	b82278a8 	str	w8, [x5, x2, lsl #2]
   81224:	b82178bf 	str	wzr, [x5, x1, lsl #2]
	get_reg(UART_LSR_OFFSET);
   81228:	97ffff62 	bl	80fb0 <get_reg>
	/* Read receive buffer */
	get_reg(UART_RBR_OFFSET);
   8122c:	52800000 	mov	w0, #0x0                   	// #0
   81230:	97ffff60 	bl	80fb0 <get_reg>
		writel(val, uart8250_base + offset);
   81234:	b82678bf 	str	wzr, [x5, x6, lsl #2]
	/* Set scratchpad */
	set_reg(UART_SCR_OFFSET, 0x00);

	return 0;
   81238:	52800000 	mov	w0, #0x0                   	// #0
   8123c:	a8c17bfd 	ldp	x29, x30, [sp], #16
   81240:	d65f03c0 	ret
		writew(val, uart8250_base + offset);
   81244:	782e48bf 	strh	wzr, [x5, w14, uxtw]
   81248:	52801000 	mov	w0, #0x80                  	// #128
   8124c:	782948a0 	strh	w0, [x5, w9, uxtw]
	get_reg(UART_LSR_OFFSET);
   81250:	528000a0 	mov	w0, #0x5                   	// #5
		writew(val, uart8250_base + offset);
   81254:	782948a7 	strh	w7, [x5, w9, uxtw]
   81258:	782d48a8 	strh	w8, [x5, w13, uxtw]
   8125c:	782c48bf 	strh	wzr, [x5, w12, uxtw]
	get_reg(UART_LSR_OFFSET);
   81260:	97ffff54 	bl	80fb0 <get_reg>
	get_reg(UART_RBR_OFFSET);
   81264:	52800000 	mov	w0, #0x0                   	// #0
   81268:	97ffff52 	bl	80fb0 <get_reg>
		writew(val, uart8250_base + offset);
   8126c:	782b48bf 	strh	wzr, [x5, w11, uxtw]
   81270:	52800000 	mov	w0, #0x0                   	// #0
   81274:	a8c17bfd 	ldp	x29, x30, [sp], #16
   81278:	d65f03c0 	ret
		writeb(val, uart8250_base + offset);
   8127c:	382e48bf 	strb	wzr, [x5, w14, uxtw]
   81280:	12800fe0 	mov	w0, #0xffffff80            	// #-128
   81284:	382948a0 	strb	w0, [x5, w9, uxtw]
	get_reg(UART_LSR_OFFSET);
   81288:	528000a0 	mov	w0, #0x5                   	// #5
		writeb(val, uart8250_base + offset);
   8128c:	382948a7 	strb	w7, [x5, w9, uxtw]
   81290:	382d48a4 	strb	w4, [x5, w13, uxtw]
   81294:	382c48bf 	strb	wzr, [x5, w12, uxtw]
	get_reg(UART_LSR_OFFSET);
   81298:	97ffff46 	bl	80fb0 <get_reg>
	get_reg(UART_RBR_OFFSET);
   8129c:	52800000 	mov	w0, #0x0                   	// #0
   812a0:	97ffff44 	bl	80fb0 <get_reg>
		writeb(val, uart8250_base + offset);
   812a4:	382b48bf 	strb	wzr, [x5, w11, uxtw]
   812a8:	52800000 	mov	w0, #0x0                   	// #0
   812ac:	a8c17bfd 	ldp	x29, x30, [sp], #16
   812b0:	d65f03c0 	ret
	...

00000000000812c0 <arch_init>:
#include <sysregs.h>

void _start();

__attribute__((weak))
void arch_init(){
   812c0:	a9be7bfd 	stp	x29, x30, [sp, #-32]!
   812c4:	910003fd 	mov	x29, sp
   812c8:	a90153f3 	stp	x19, x20, [sp, #16]
    uint64_t cpuid = MRS(MPIDR_EL1);
   812cc:	d53800b3 	mrs	x19, mpidr_el1
    uint64_t cpuid = get_cpuid();
    gic_init();
   812d0:	94000084 	bl	814e0 <gic_init>
    TIMER_FREQ = MRS(CNTFRQ_EL0);
   812d4:	d53be001 	mrs	x1, cntfrq_el0
   812d8:	b0001400 	adrp	x0, 302000 <irq_handlers+0x1370>
   812dc:	f9065401 	str	x1, [x0, #3240]
   812e0:	d53800a1 	mrs	x1, mpidr_el1
    return get_cpuid() == master_cpu;
   812e4:	b00000a0 	adrp	x0, 96000 <JIS_state_table+0x70>
#ifndef SINGLE_CORE
    if(cpu_is_master()){
   812e8:	f940f400 	ldr	x0, [x0, #488]
   812ec:	eb21001f 	cmp	x0, w1, uxtb
   812f0:	540000a0 	b.eq	81304 <arch_init+0x44>  // b.none
        do {
            ret = psci_cpu_on(i, (uintptr_t) _start, 0);
        } while(i++, ret == PSCI_E_SUCCESS);
    }
#endif
    asm volatile("MSR   DAIFClr, #2\n\t");
   812f4:	d50342ff 	msr	daifclr, #0x2
}
   812f8:	a94153f3 	ldp	x19, x20, [sp, #16]
   812fc:	a8c27bfd 	ldp	x29, x30, [sp], #32
   81300:	d65f03c0 	ret
    return cpuid & MPIDR_CPU_MASK;
   81304:	92401e73 	and	x19, x19, #0xff
            ret = psci_cpu_on(i, (uintptr_t) _start, 0);
   81308:	f0fffff4 	adrp	x20, 80000 <_start>
        size_t i = cpuid + 1;
   8130c:	91000673 	add	x19, x19, #0x1
            ret = psci_cpu_on(i, (uintptr_t) _start, 0);
   81310:	91000294 	add	x20, x20, #0x0
   81314:	d503201f 	nop
   81318:	aa1303e0 	mov	x0, x19
   8131c:	aa1403e1 	mov	x1, x20
        } while(i++, ret == PSCI_E_SUCCESS);
   81320:	91000673 	add	x19, x19, #0x1
            ret = psci_cpu_on(i, (uintptr_t) _start, 0);
   81324:	d2800002 	mov	x2, #0x0                   	// #0
   81328:	94000022 	bl	813b0 <psci_cpu_on>
        } while(i++, ret == PSCI_E_SUCCESS);
   8132c:	34ffff60 	cbz	w0, 81318 <arch_init+0x58>
    asm volatile("MSR   DAIFClr, #2\n\t");
   81330:	d50342ff 	msr	daifclr, #0x2
}
   81334:	a94153f3 	ldp	x19, x20, [sp, #16]
   81338:	a8c27bfd 	ldp	x29, x30, [sp], #32
   8133c:	d65f03c0 	ret

0000000000081340 <smc_call>:
	register uint64_t r0 asm("r0") = x0;
	register uint64_t r1 asm("r1") = x1;
	register uint64_t r2 asm("r2") = x2;
	register uint64_t r3 asm("r3") = x3;

    asm volatile(
   81340:	d4000003 	smc	#0x0
			: "=r" (r0)
			: "r" (r0), "r" (r1), "r" (r2)
			: "r3");

	return r0;
}
   81344:	d65f03c0 	ret
   81348:	d503201f 	nop
   8134c:	d503201f 	nop

0000000000081350 <psci_version>:
	register uint64_t r0 asm("r0") = x0;
   81350:	d2b08000 	mov	x0, #0x84000000            	// #2214592512
	register uint64_t r1 asm("r1") = x1;
   81354:	d2800001 	mov	x1, #0x0                   	// #0
	register uint64_t r2 asm("r2") = x2;
   81358:	d2800002 	mov	x2, #0x0                   	// #0
    asm volatile(
   8135c:	d4000003 	smc	#0x0
--------------------------------- */

uint64_t psci_version(void)
{
    return smc_call(PSCI_VERSION, 0, 0, 0);
}
   81360:	93407c00 	sxtw	x0, w0
   81364:	d65f03c0 	ret
   81368:	d503201f 	nop
   8136c:	d503201f 	nop

0000000000081370 <psci_cpu_suspend>:


uint64_t psci_cpu_suspend(uint64_t power_state, uintptr_t entrypoint, 
                    uint64_t context_id)
{
   81370:	aa0003e3 	mov	x3, x0
	register uint64_t r0 asm("r0") = x0;
   81374:	d2800020 	mov	x0, #0x1                   	// #1
{
   81378:	aa0103e2 	mov	x2, x1
	register uint64_t r0 asm("r0") = x0;
   8137c:	f2b88000 	movk	x0, #0xc400, lsl #16
	register uint64_t r1 asm("r1") = x1;
   81380:	aa0303e1 	mov	x1, x3
    asm volatile(
   81384:	d4000003 	smc	#0x0
    return smc_call(PSCI_CPU_SUSPEND_AARCH64, power_state, entrypoint, 
                                                                    context_id);
}
   81388:	93407c00 	sxtw	x0, w0
   8138c:	d65f03c0 	ret

0000000000081390 <psci_cpu_off>:
	register uint64_t r0 asm("r0") = x0;
   81390:	d2800040 	mov	x0, #0x2                   	// #2
	register uint64_t r1 asm("r1") = x1;
   81394:	d2800001 	mov	x1, #0x0                   	// #0
	register uint64_t r0 asm("r0") = x0;
   81398:	f2b08000 	movk	x0, #0x8400, lsl #16
	register uint64_t r2 asm("r2") = x2;
   8139c:	d2800002 	mov	x2, #0x0                   	// #0
    asm volatile(
   813a0:	d4000003 	smc	#0x0

uint64_t psci_cpu_off(void)
{
    return smc_call(PSCI_CPU_OFF, 0, 0, 0);
}
   813a4:	93407c00 	sxtw	x0, w0
   813a8:	d65f03c0 	ret
   813ac:	d503201f 	nop

00000000000813b0 <psci_cpu_on>:

uint64_t psci_cpu_on(uint64_t target_cpu, uintptr_t entrypoint, 
                    uint64_t context_id)
{
   813b0:	aa0003e3 	mov	x3, x0
	register uint64_t r0 asm("r0") = x0;
   813b4:	d2800060 	mov	x0, #0x3                   	// #3
{
   813b8:	aa0103e2 	mov	x2, x1
	register uint64_t r0 asm("r0") = x0;
   813bc:	f2b88000 	movk	x0, #0xc400, lsl #16
	register uint64_t r1 asm("r1") = x1;
   813c0:	aa0303e1 	mov	x1, x3
    asm volatile(
   813c4:	d4000003 	smc	#0x0
    return smc_call(PSCI_CPU_ON_AARCH64, target_cpu, entrypoint, context_id);
}
   813c8:	93407c00 	sxtw	x0, w0
   813cc:	d65f03c0 	ret

00000000000813d0 <psci_affinity_info>:

uint64_t psci_affinity_info(uint64_t target_affinity, 
                            uint64_t lowest_affinity_level)
{
   813d0:	aa0003e3 	mov	x3, x0
	register uint64_t r0 asm("r0") = x0;
   813d4:	d2800080 	mov	x0, #0x4                   	// #4
{
   813d8:	aa0103e2 	mov	x2, x1
	register uint64_t r0 asm("r0") = x0;
   813dc:	f2b88000 	movk	x0, #0xc400, lsl #16
	register uint64_t r1 asm("r1") = x1;
   813e0:	aa0303e1 	mov	x1, x3
    asm volatile(
   813e4:	d4000003 	smc	#0x0
    return smc_call(PSCI_AFFINITY_INFO_AARCH64, target_affinity, 
                    lowest_affinity_level, 0);
}
   813e8:	93407c00 	sxtw	x0, w0
   813ec:	d65f03c0 	ret

00000000000813f0 <irq_enable>:

#ifndef GIC_VERSION
#error "GIC_VERSION not defined for this platform"
#endif

void irq_enable(unsigned id) {
   813f0:	a9be7bfd 	stp	x29, x30, [sp, #-32]!
   gic_set_enable(id, true); 
   813f4:	52800021 	mov	w1, #0x1                   	// #1
void irq_enable(unsigned id) {
   813f8:	910003fd 	mov	x29, sp
   813fc:	f9000bf3 	str	x19, [sp, #16]
   gic_set_enable(id, true); 
   81400:	2a0003f3 	mov	w19, w0
   81404:	aa1303e0 	mov	x0, x19
   81408:	94000046 	bl	81520 <gic_set_enable>
   if(GIC_VERSION == GICV2) {
       gic_set_trgt(id, gic_get_trgt(id) | (1 << get_cpuid()));
   8140c:	aa1303e0 	mov	x0, x19
   81410:	94000060 	bl	81590 <gic_get_trgt>
   81414:	12001c02 	and	w2, w0, #0xff
    uint64_t cpuid = MRS(MPIDR_EL1);
   81418:	d53800a3 	mrs	x3, mpidr_el1
   8141c:	aa1303e0 	mov	x0, x19
   81420:	52800021 	mov	w1, #0x1                   	// #1
   } else {
       gic_set_route(id, get_cpuid());
   }
}
   81424:	f9400bf3 	ldr	x19, [sp, #16]
       gic_set_trgt(id, gic_get_trgt(id) | (1 << get_cpuid()));
   81428:	1ac32021 	lsl	w1, w1, w3
}
   8142c:	a8c27bfd 	ldp	x29, x30, [sp], #32
       gic_set_trgt(id, gic_get_trgt(id) | (1 << get_cpuid()));
   81430:	2a010041 	orr	w1, w2, w1
   81434:	14000048 	b	81554 <gic_set_trgt>
   81438:	d503201f 	nop
   8143c:	d503201f 	nop

0000000000081440 <irq_set_prio>:

void irq_set_prio(unsigned id, unsigned prio){
    gic_set_prio(id, (uint8_t) prio);
   81440:	2a0003e0 	mov	w0, w0
   81444:	14000068 	b	815e4 <gic_set_prio>
   81448:	d503201f 	nop
   8144c:	d503201f 	nop

0000000000081450 <irq_send_ipi>:
}

void irq_send_ipi(uint64_t target_cpu_mask) {
   81450:	a9be7bfd 	stp	x29, x30, [sp, #-32]!
   81454:	910003fd 	mov	x29, sp
   81458:	a90153f3 	stp	x19, x20, [sp, #16]
   8145c:	aa0003f4 	mov	x20, x0
   81460:	d2800013 	mov	x19, #0x0                   	// #0
   81464:	14000004 	b	81474 <irq_send_ipi+0x24>
    for(int i = 0; i < sizeof(target_cpu_mask)*8; i++) {
   81468:	91000673 	add	x19, x19, #0x1
   8146c:	f101027f 	cmp	x19, #0x40
   81470:	54000120 	b.eq	81494 <irq_send_ipi+0x44>  // b.none
        if(target_cpu_mask & (1ull << i)) {
   81474:	9ad32681 	lsr	x1, x20, x19
   81478:	3607ff81 	tbz	w1, #0, 81468 <irq_send_ipi+0x18>
            gic_send_sgi(i, IPI_IRQ_ID);
   8147c:	aa1303e0 	mov	x0, x19
   81480:	d2800001 	mov	x1, #0x0                   	// #0
    for(int i = 0; i < sizeof(target_cpu_mask)*8; i++) {
   81484:	91000673 	add	x19, x19, #0x1
            gic_send_sgi(i, IPI_IRQ_ID);
   81488:	9400004e 	bl	815c0 <gic_send_sgi>
    for(int i = 0; i < sizeof(target_cpu_mask)*8; i++) {
   8148c:	f101027f 	cmp	x19, #0x40
   81490:	54ffff21 	b.ne	81474 <irq_send_ipi+0x24>  // b.any
        }
    }
}
   81494:	a94153f3 	ldp	x19, x20, [sp, #16]
   81498:	a8c27bfd 	ldp	x29, x30, [sp], #32
   8149c:	d65f03c0 	ret

00000000000814a0 <gicc_init>:

    for(int i = 0; i< GIC_NUM_PRIO_REGS(GIC_CPU_PRIV); i++){
       //gicd->IPRIORITYR[i] = -1;
    }

    gicc->PMR = -1;
   814a0:	b00000a0 	adrp	x0, 96000 <JIS_state_table+0x70>
   814a4:	12800002 	mov	w2, #0xffffffff            	// #-1
    gicc->CTLR = GICC_CTLR_EN_BIT;
   814a8:	52800021 	mov	w1, #0x1                   	// #1
    gicc->PMR = -1;
   814ac:	f940ec00 	ldr	x0, [x0, #472]
   814b0:	b9000402 	str	w2, [x0, #4]
    gicc->CTLR = GICC_CTLR_EN_BIT;
   814b4:	b9000001 	str	w1, [x0]
    
}
   814b8:	d65f03c0 	ret
   814bc:	d503201f 	nop

00000000000814c0 <gicd_init>:
    return ((gicd->TYPER & BIT_MASK(GICD_TYPER_ITLINENUM_OFF, GICD_TYPER_ITLINENUM_LEN) >>
   814c0:	b00000a0 	adrp	x0, 96000 <JIS_state_table+0x70>
//        gicd->ICFGR[i] = 0xAAAAAAAA;

    /* No need to setup gicd->NSACR as all interrupts are  setup to group 1 */

    /* Enable distributor */
    gicd->CTLR = GICD_CTLR_EN_BIT;
   814c4:	52800021 	mov	w1, #0x1                   	// #1
    return ((gicd->TYPER & BIT_MASK(GICD_TYPER_ITLINENUM_OFF, GICD_TYPER_ITLINENUM_LEN) >>
   814c8:	f940f000 	ldr	x0, [x0, #480]
   814cc:	b9400402 	ldr	w2, [x0, #4]
    gicd->CTLR = GICD_CTLR_EN_BIT;
   814d0:	b9000001 	str	w1, [x0]
}
   814d4:	d65f03c0 	ret
   814d8:	d503201f 	nop
   814dc:	d503201f 	nop

00000000000814e0 <gic_init>:
   814e0:	d53800a1 	mrs	x1, mpidr_el1
    return cpuid & MPIDR_CPU_MASK;
   814e4:	b00000a0 	adrp	x0, 96000 <JIS_state_table+0x70>

void gic_init() {
    if(get_cpuid() == 0) {
   814e8:	72001c3f 	tst	w1, #0xff
   814ec:	540000c1 	b.ne	81504 <gic_init+0x24>  // b.any
    return ((gicd->TYPER & BIT_MASK(GICD_TYPER_ITLINENUM_OFF, GICD_TYPER_ITLINENUM_LEN) >>
   814f0:	91076001 	add	x1, x0, #0x1d8
    gicd->CTLR = GICD_CTLR_EN_BIT;
   814f4:	52800022 	mov	w2, #0x1                   	// #1
    return ((gicd->TYPER & BIT_MASK(GICD_TYPER_ITLINENUM_OFF, GICD_TYPER_ITLINENUM_LEN) >>
   814f8:	f9400421 	ldr	x1, [x1, #8]
   814fc:	b9400423 	ldr	w3, [x1, #4]
    gicd->CTLR = GICD_CTLR_EN_BIT;
   81500:	b9000022 	str	w2, [x1]
    gicc->PMR = -1;
   81504:	f940ec00 	ldr	x0, [x0, #472]
   81508:	12800002 	mov	w2, #0xffffffff            	// #-1
    gicc->CTLR = GICC_CTLR_EN_BIT;
   8150c:	52800021 	mov	w1, #0x1                   	// #1
    gicc->PMR = -1;
   81510:	b9000402 	str	w2, [x0, #4]
    gicc->CTLR = GICC_CTLR_EN_BIT;
   81514:	b9000001 	str	w1, [x0]
        gicd_init();
    }
    gicc_init();
}
   81518:	d65f03c0 	ret
   8151c:	d503201f 	nop

0000000000081520 <gic_set_enable>:
    
    uint64_t reg_ind = int_id/(sizeof(uint32_t)*8);
    uint64_t bit = (1UL << int_id%(sizeof(uint32_t)*8));

    if(en)
        gicd->ISENABLER[reg_ind] = bit;
   81520:	b00000a3 	adrp	x3, 96000 <JIS_state_table+0x70>
    uint64_t bit = (1UL << int_id%(sizeof(uint32_t)*8));
   81524:	12001004 	and	w4, w0, #0x1f
    uint64_t reg_ind = int_id/(sizeof(uint32_t)*8);
   81528:	d345fc00 	lsr	x0, x0, #5
    uint64_t bit = (1UL << int_id%(sizeof(uint32_t)*8));
   8152c:	d2800022 	mov	x2, #0x1                   	// #1
        gicd->ISENABLER[reg_ind] = bit;
   81530:	f940f063 	ldr	x3, [x3, #480]
    uint64_t bit = (1UL << int_id%(sizeof(uint32_t)*8));
   81534:	9ac42042 	lsl	x2, x2, x4
        gicd->ISENABLER[reg_ind] = bit;
   81538:	8b000860 	add	x0, x3, x0, lsl #2
    if(en)
   8153c:	72001c3f 	tst	w1, #0xff
   81540:	54000060 	b.eq	8154c <gic_set_enable+0x2c>  // b.none
        gicd->ISENABLER[reg_ind] = bit;
   81544:	b9010002 	str	w2, [x0, #256]
    else
        gicd->ICENABLER[reg_ind] = bit;

}
   81548:	d65f03c0 	ret
        gicd->ICENABLER[reg_ind] = bit;
   8154c:	b9018002 	str	w2, [x0, #384]
}
   81550:	d65f03c0 	ret

0000000000081554 <gic_set_trgt>:
    uint64_t reg_ind = (int_id * GIC_TARGET_BITS) / (sizeof(uint32_t) * 8);
    uint64_t off = (int_id * GIC_TARGET_BITS) % (sizeof(uint32_t) * 8);
    uint32_t mask = ((1U << GIC_TARGET_BITS) - 1) << off;

    gicd->ITARGETSR[reg_ind] =
        (gicd->ITARGETSR[reg_ind] & ~mask) | ((trgt << off) & mask);
   81554:	b00000a2 	adrp	x2, 96000 <JIS_state_table+0x70>
    uint32_t mask = ((1U << GIC_TARGET_BITS) - 1) << off;
   81558:	927ee804 	and	x4, x0, #0x1ffffffffffffffc
{
   8155c:	12001c21 	and	w1, w1, #0xff
    uint64_t off = (int_id * GIC_TARGET_BITS) % (sizeof(uint32_t) * 8);
   81560:	d37d0400 	ubfiz	x0, x0, #3, #2
    gicd->ITARGETSR[reg_ind] =
   81564:	f940f042 	ldr	x2, [x2, #480]
    uint32_t mask = ((1U << GIC_TARGET_BITS) - 1) << off;
   81568:	52801fe3 	mov	w3, #0xff                  	// #255
   8156c:	1ac02063 	lsl	w3, w3, w0
   81570:	8b040042 	add	x2, x2, x4
        (gicd->ITARGETSR[reg_ind] & ~mask) | ((trgt << off) & mask);
   81574:	1ac02021 	lsl	w1, w1, w0
   81578:	b9480040 	ldr	w0, [x2, #2048]
   8157c:	4a000021 	eor	w1, w1, w0
   81580:	0a030021 	and	w1, w1, w3
   81584:	4a000021 	eor	w1, w1, w0
    gicd->ITARGETSR[reg_ind] =
   81588:	b9080041 	str	w1, [x2, #2048]
}
   8158c:	d65f03c0 	ret

0000000000081590 <gic_get_trgt>:
{
    uint64_t reg_ind = (int_id * GIC_TARGET_BITS) / (sizeof(uint32_t) * 8);
    uint64_t off = (int_id * GIC_TARGET_BITS) % (sizeof(uint32_t) * 8);
    uint32_t mask = ((1U << GIC_TARGET_BITS) - 1) << off;

    return (gicd->ITARGETSR[reg_ind] & mask) >> off;
   81590:	b00000a2 	adrp	x2, 96000 <JIS_state_table+0x70>
   81594:	927ee803 	and	x3, x0, #0x1ffffffffffffffc
    uint64_t off = (int_id * GIC_TARGET_BITS) % (sizeof(uint32_t) * 8);
   81598:	d37d0400 	ubfiz	x0, x0, #3, #2
    uint32_t mask = ((1U << GIC_TARGET_BITS) - 1) << off;
   8159c:	52801fe1 	mov	w1, #0xff                  	// #255
    return (gicd->ITARGETSR[reg_ind] & mask) >> off;
   815a0:	f940f042 	ldr	x2, [x2, #480]
    uint32_t mask = ((1U << GIC_TARGET_BITS) - 1) << off;
   815a4:	1ac02021 	lsl	w1, w1, w0
    return (gicd->ITARGETSR[reg_ind] & mask) >> off;
   815a8:	8b030042 	add	x2, x2, x3
   815ac:	b9480042 	ldr	w2, [x2, #2048]
   815b0:	0a020021 	and	w1, w1, w2
}
   815b4:	1ac02420 	lsr	w0, w1, w0
   815b8:	d65f03c0 	ret
   815bc:	d503201f 	nop

00000000000815c0 <gic_send_sgi>:

void gic_send_sgi(uint64_t cpu_target, uint64_t sgi_num){
    gicd->SGIR   = (1UL << (GICD_SGIR_CPUTRGLST_OFF + cpu_target))
   815c0:	b00000a3 	adrp	x3, 96000 <JIS_state_table+0x70>
   815c4:	11004002 	add	w2, w0, #0x10
        | (sgi_num & GICD_SGIR_SGIINTID_MSK);
   815c8:	12000c21 	and	w1, w1, #0xf
    gicd->SGIR   = (1UL << (GICD_SGIR_CPUTRGLST_OFF + cpu_target))
   815cc:	d2800020 	mov	x0, #0x1                   	// #1
   815d0:	f940f063 	ldr	x3, [x3, #480]
   815d4:	9ac22000 	lsl	x0, x0, x2
        | (sgi_num & GICD_SGIR_SGIINTID_MSK);
   815d8:	2a000021 	orr	w1, w1, w0
    gicd->SGIR   = (1UL << (GICD_SGIR_CPUTRGLST_OFF + cpu_target))
   815dc:	b90f0061 	str	w1, [x3, #3840]
}
   815e0:	d65f03c0 	ret

00000000000815e4 <gic_set_prio>:
void gic_set_prio(uint64_t int_id, uint8_t prio){
    uint64_t reg_ind = (int_id*GIC_PRIO_BITS)/(sizeof(uint32_t)*8);
    uint64_t off = (int_id*GIC_PRIO_BITS)%((sizeof(uint32_t)*8));
    uint64_t mask = ((1 << GIC_PRIO_BITS)-1) << off;

    gicd->IPRIORITYR[reg_ind] = (gicd->IPRIORITYR[reg_ind] & ~mask) | 
   815e4:	b00000a2 	adrp	x2, 96000 <JIS_state_table+0x70>
    uint64_t mask = ((1 << GIC_PRIO_BITS)-1) << off;
   815e8:	927ee804 	and	x4, x0, #0x1ffffffffffffffc
void gic_set_prio(uint64_t int_id, uint8_t prio){
   815ec:	12001c21 	and	w1, w1, #0xff
    uint64_t off = (int_id*GIC_PRIO_BITS)%((sizeof(uint32_t)*8));
   815f0:	d37d0400 	ubfiz	x0, x0, #3, #2
    gicd->IPRIORITYR[reg_ind] = (gicd->IPRIORITYR[reg_ind] & ~mask) | 
   815f4:	f940f042 	ldr	x2, [x2, #480]
    uint64_t mask = ((1 << GIC_PRIO_BITS)-1) << off;
   815f8:	52801fe3 	mov	w3, #0xff                  	// #255
   815fc:	1ac02063 	lsl	w3, w3, w0
   81600:	8b040042 	add	x2, x2, x4
        ((prio << off) & mask);
   81604:	1ac02021 	lsl	w1, w1, w0
    gicd->IPRIORITYR[reg_ind] = (gicd->IPRIORITYR[reg_ind] & ~mask) | 
   81608:	b9440040 	ldr	w0, [x2, #1024]
   8160c:	4a000021 	eor	w1, w1, w0
   81610:	0a030021 	and	w1, w1, w3
   81614:	4a000021 	eor	w1, w1, w0
   81618:	b9040041 	str	w1, [x2, #1024]
}
   8161c:	d65f03c0 	ret

0000000000081620 <gic_is_pending>:
bool gic_is_pending(uint64_t int_id){

    uint64_t reg_ind = int_id/(sizeof(uint32_t)*8);
    uint64_t off = int_id%(sizeof(uint32_t)*8);

    return ((1U << off) & gicd->ISPENDR[reg_ind]) != 0;
   81620:	b00000a1 	adrp	x1, 96000 <JIS_state_table+0x70>
   81624:	f940f022 	ldr	x2, [x1, #480]
    uint64_t reg_ind = int_id/(sizeof(uint32_t)*8);
   81628:	d345fc01 	lsr	x1, x0, #5
    uint64_t off = int_id%(sizeof(uint32_t)*8);
   8162c:	92401000 	and	x0, x0, #0x1f
    return ((1U << off) & gicd->ISPENDR[reg_ind]) != 0;
   81630:	8b010841 	add	x1, x2, x1, lsl #2
   81634:	b9420021 	ldr	w1, [x1, #512]
   81638:	1ac02420 	lsr	w0, w1, w0
}
   8163c:	12000000 	and	w0, w0, #0x1
   81640:	d65f03c0 	ret

0000000000081644 <gic_set_pending>:
void gic_set_pending(uint64_t int_id, bool pending){
    uint64_t reg_ind = int_id / (sizeof(uint32_t) * 8);
    uint64_t mask = 1U << int_id % (sizeof(uint32_t) * 8);

    if (pending) {
        gicd->ISPENDR[reg_ind] = mask;
   81644:	b00000a2 	adrp	x2, 96000 <JIS_state_table+0x70>
    uint64_t mask = 1U << int_id % (sizeof(uint32_t) * 8);
   81648:	52800023 	mov	w3, #0x1                   	// #1
        gicd->ISPENDR[reg_ind] = mask;
   8164c:	f940f044 	ldr	x4, [x2, #480]
    uint64_t reg_ind = int_id / (sizeof(uint32_t) * 8);
   81650:	d345fc02 	lsr	x2, x0, #5
    uint64_t mask = 1U << int_id % (sizeof(uint32_t) * 8);
   81654:	1ac02060 	lsl	w0, w3, w0
        gicd->ISPENDR[reg_ind] = mask;
   81658:	8b020882 	add	x2, x4, x2, lsl #2
    if (pending) {
   8165c:	72001c3f 	tst	w1, #0xff
   81660:	54000060 	b.eq	8166c <gic_set_pending+0x28>  // b.none
        gicd->ISPENDR[reg_ind] = mask;
   81664:	b9020040 	str	w0, [x2, #512]
    } else {
        gicd->ICPENDR[reg_ind] = mask;
    }   
}
   81668:	d65f03c0 	ret
        gicd->ICPENDR[reg_ind] = mask;
   8166c:	b9028040 	str	w0, [x2, #640]
}
   81670:	d65f03c0 	ret

0000000000081674 <gic_is_active>:
bool gic_is_active(uint64_t int_id){

    uint64_t reg_ind = int_id/(sizeof(uint32_t)*8);
    uint64_t off = int_id%(sizeof(uint32_t)*8);

    return ((1U << off) & gicd->ISACTIVER[reg_ind]) != 0;
   81674:	b00000a1 	adrp	x1, 96000 <JIS_state_table+0x70>
   81678:	f940f022 	ldr	x2, [x1, #480]
    uint64_t reg_ind = int_id/(sizeof(uint32_t)*8);
   8167c:	d345fc01 	lsr	x1, x0, #5
    uint64_t off = int_id%(sizeof(uint32_t)*8);
   81680:	92401000 	and	x0, x0, #0x1f
    return ((1U << off) & gicd->ISACTIVER[reg_ind]) != 0;
   81684:	8b010841 	add	x1, x2, x1, lsl #2
   81688:	b9430021 	ldr	w1, [x1, #768]
   8168c:	1ac02420 	lsr	w0, w1, w0
}
   81690:	12000000 	and	w0, w0, #0x1
   81694:	d65f03c0 	ret
   81698:	d503201f 	nop
   8169c:	d503201f 	nop

00000000000816a0 <gic_handle>:

void gic_handle(){
   816a0:	a9be7bfd 	stp	x29, x30, [sp, #-32]!
   816a4:	910003fd 	mov	x29, sp
   816a8:	a90153f3 	stp	x19, x20, [sp, #16]

    uint64_t ack = gicc->IAR;
   816ac:	b00000b4 	adrp	x20, 96000 <JIS_state_table+0x70>
   816b0:	f940ee80 	ldr	x0, [x20, #472]
   816b4:	b9400c13 	ldr	w19, [x0, #12]
    uint64_t id = ack & GICC_IAR_ID_MSK;
   816b8:	12002660 	and	w0, w19, #0x3ff
    uint64_t src = (ack & GICC_IAR_CPU_MSK) >> GICC_IAR_CPU_OFF;

    if(id >= 1022) return;
   816bc:	710ff41f 	cmp	w0, #0x3fd
   816c0:	54000088 	b.hi	816d0 <gic_handle+0x30>  // b.pmore

    irq_handle(id);
   816c4:	97fffd9b 	bl	80d30 <irq_handle>
        
    gicc->EOIR = ack;
   816c8:	f940ee80 	ldr	x0, [x20, #472]
   816cc:	b9001013 	str	w19, [x0, #16]
    
}
   816d0:	a94153f3 	ldp	x19, x20, [sp, #16]
   816d4:	a8c27bfd 	ldp	x29, x30, [sp], #32
   816d8:	d65f03c0 	ret
	...

0000000000081800 <_exception_vector>:
/* 
 * EL1 with SP0
 */  
.balign ENTRY_SIZE
curr_el_sp0_sync:        
    b	.
   81800:	14000000 	b	81800 <_exception_vector>
   81804:	d503201f 	nop
   81808:	d503201f 	nop
   8180c:	d503201f 	nop
   81810:	d503201f 	nop
   81814:	d503201f 	nop
   81818:	d503201f 	nop
   8181c:	d503201f 	nop
   81820:	d503201f 	nop
   81824:	d503201f 	nop
   81828:	d503201f 	nop
   8182c:	d503201f 	nop
   81830:	d503201f 	nop
   81834:	d503201f 	nop
   81838:	d503201f 	nop
   8183c:	d503201f 	nop
   81840:	d503201f 	nop
   81844:	d503201f 	nop
   81848:	d503201f 	nop
   8184c:	d503201f 	nop
   81850:	d503201f 	nop
   81854:	d503201f 	nop
   81858:	d503201f 	nop
   8185c:	d503201f 	nop
   81860:	d503201f 	nop
   81864:	d503201f 	nop
   81868:	d503201f 	nop
   8186c:	d503201f 	nop
   81870:	d503201f 	nop
   81874:	d503201f 	nop
   81878:	d503201f 	nop
   8187c:	d503201f 	nop

0000000000081880 <curr_el_sp0_irq>:
.balign ENTRY_SIZE
curr_el_sp0_irq:  
    b   .
   81880:	14000000 	b	81880 <curr_el_sp0_irq>
   81884:	d503201f 	nop
   81888:	d503201f 	nop
   8188c:	d503201f 	nop
   81890:	d503201f 	nop
   81894:	d503201f 	nop
   81898:	d503201f 	nop
   8189c:	d503201f 	nop
   818a0:	d503201f 	nop
   818a4:	d503201f 	nop
   818a8:	d503201f 	nop
   818ac:	d503201f 	nop
   818b0:	d503201f 	nop
   818b4:	d503201f 	nop
   818b8:	d503201f 	nop
   818bc:	d503201f 	nop
   818c0:	d503201f 	nop
   818c4:	d503201f 	nop
   818c8:	d503201f 	nop
   818cc:	d503201f 	nop
   818d0:	d503201f 	nop
   818d4:	d503201f 	nop
   818d8:	d503201f 	nop
   818dc:	d503201f 	nop
   818e0:	d503201f 	nop
   818e4:	d503201f 	nop
   818e8:	d503201f 	nop
   818ec:	d503201f 	nop
   818f0:	d503201f 	nop
   818f4:	d503201f 	nop
   818f8:	d503201f 	nop
   818fc:	d503201f 	nop

0000000000081900 <curr_el_sp0_fiq>:
.balign ENTRY_SIZE
curr_el_sp0_fiq:         
    b	.
   81900:	14000000 	b	81900 <curr_el_sp0_fiq>
   81904:	d503201f 	nop
   81908:	d503201f 	nop
   8190c:	d503201f 	nop
   81910:	d503201f 	nop
   81914:	d503201f 	nop
   81918:	d503201f 	nop
   8191c:	d503201f 	nop
   81920:	d503201f 	nop
   81924:	d503201f 	nop
   81928:	d503201f 	nop
   8192c:	d503201f 	nop
   81930:	d503201f 	nop
   81934:	d503201f 	nop
   81938:	d503201f 	nop
   8193c:	d503201f 	nop
   81940:	d503201f 	nop
   81944:	d503201f 	nop
   81948:	d503201f 	nop
   8194c:	d503201f 	nop
   81950:	d503201f 	nop
   81954:	d503201f 	nop
   81958:	d503201f 	nop
   8195c:	d503201f 	nop
   81960:	d503201f 	nop
   81964:	d503201f 	nop
   81968:	d503201f 	nop
   8196c:	d503201f 	nop
   81970:	d503201f 	nop
   81974:	d503201f 	nop
   81978:	d503201f 	nop
   8197c:	d503201f 	nop

0000000000081980 <curr_el_sp0_serror>:
.balign ENTRY_SIZE
curr_el_sp0_serror:      
    b	.
   81980:	14000000 	b	81980 <curr_el_sp0_serror>
   81984:	d503201f 	nop
   81988:	d503201f 	nop
   8198c:	d503201f 	nop
   81990:	d503201f 	nop
   81994:	d503201f 	nop
   81998:	d503201f 	nop
   8199c:	d503201f 	nop
   819a0:	d503201f 	nop
   819a4:	d503201f 	nop
   819a8:	d503201f 	nop
   819ac:	d503201f 	nop
   819b0:	d503201f 	nop
   819b4:	d503201f 	nop
   819b8:	d503201f 	nop
   819bc:	d503201f 	nop
   819c0:	d503201f 	nop
   819c4:	d503201f 	nop
   819c8:	d503201f 	nop
   819cc:	d503201f 	nop
   819d0:	d503201f 	nop
   819d4:	d503201f 	nop
   819d8:	d503201f 	nop
   819dc:	d503201f 	nop
   819e0:	d503201f 	nop
   819e4:	d503201f 	nop
   819e8:	d503201f 	nop
   819ec:	d503201f 	nop
   819f0:	d503201f 	nop
   819f4:	d503201f 	nop
   819f8:	d503201f 	nop
   819fc:	d503201f 	nop

0000000000081a00 <curr_el_spx_sync>:
/* 
 * EL1 with SPx
 */  
.balign ENTRY_SIZE  
curr_el_spx_sync:        
    b	.
   81a00:	14000000 	b	81a00 <curr_el_spx_sync>
   81a04:	d503201f 	nop
   81a08:	d503201f 	nop
   81a0c:	d503201f 	nop
   81a10:	d503201f 	nop
   81a14:	d503201f 	nop
   81a18:	d503201f 	nop
   81a1c:	d503201f 	nop
   81a20:	d503201f 	nop
   81a24:	d503201f 	nop
   81a28:	d503201f 	nop
   81a2c:	d503201f 	nop
   81a30:	d503201f 	nop
   81a34:	d503201f 	nop
   81a38:	d503201f 	nop
   81a3c:	d503201f 	nop
   81a40:	d503201f 	nop
   81a44:	d503201f 	nop
   81a48:	d503201f 	nop
   81a4c:	d503201f 	nop
   81a50:	d503201f 	nop
   81a54:	d503201f 	nop
   81a58:	d503201f 	nop
   81a5c:	d503201f 	nop
   81a60:	d503201f 	nop
   81a64:	d503201f 	nop
   81a68:	d503201f 	nop
   81a6c:	d503201f 	nop
   81a70:	d503201f 	nop
   81a74:	d503201f 	nop
   81a78:	d503201f 	nop
   81a7c:	d503201f 	nop

0000000000081a80 <curr_el_spx_irq>:
.balign ENTRY_SIZE
curr_el_spx_irq:       
    SAVE_REGS
   81a80:	d102c3ff 	sub	sp, sp, #0xb0
   81a84:	a90007e0 	stp	x0, x1, [sp]
   81a88:	a9010fe2 	stp	x2, x3, [sp, #16]
   81a8c:	a90217e4 	stp	x4, x5, [sp, #32]
   81a90:	a9031fe6 	stp	x6, x7, [sp, #48]
   81a94:	a90427e8 	stp	x8, x9, [sp, #64]
   81a98:	a9052fea 	stp	x10, x11, [sp, #80]
   81a9c:	a90637ec 	stp	x12, x13, [sp, #96]
   81aa0:	a9073fee 	stp	x14, x15, [sp, #112]
   81aa4:	a90847f0 	stp	x16, x17, [sp, #128]
   81aa8:	a9094ff2 	stp	x18, x19, [sp, #144]
   81aac:	a90e7bfd 	stp	x29, x30, [sp, #224]
    bl	gic_handle
   81ab0:	97fffefc 	bl	816a0 <gic_handle>
    RESTORE_REGS
   81ab4:	a94007e0 	ldp	x0, x1, [sp]
   81ab8:	a9410fe2 	ldp	x2, x3, [sp, #16]
   81abc:	a94217e4 	ldp	x4, x5, [sp, #32]
   81ac0:	a9431fe6 	ldp	x6, x7, [sp, #48]
   81ac4:	a94427e8 	ldp	x8, x9, [sp, #64]
   81ac8:	a9452fea 	ldp	x10, x11, [sp, #80]
   81acc:	a94637ec 	ldp	x12, x13, [sp, #96]
   81ad0:	a9473fee 	ldp	x14, x15, [sp, #112]
   81ad4:	a94847f0 	ldp	x16, x17, [sp, #128]
   81ad8:	a9494ff2 	ldp	x18, x19, [sp, #144]
   81adc:	a94e7bfd 	ldp	x29, x30, [sp, #224]
   81ae0:	9102c3ff 	add	sp, sp, #0xb0
    eret
   81ae4:	d69f03e0 	eret
   81ae8:	d503201f 	nop
   81aec:	d503201f 	nop
   81af0:	d503201f 	nop
   81af4:	d503201f 	nop
   81af8:	d503201f 	nop
   81afc:	d503201f 	nop

0000000000081b00 <curr_el_spx_fiq>:
.balign ENTRY_SIZE
curr_el_spx_fiq:         
    SAVE_REGS
   81b00:	d102c3ff 	sub	sp, sp, #0xb0
   81b04:	a90007e0 	stp	x0, x1, [sp]
   81b08:	a9010fe2 	stp	x2, x3, [sp, #16]
   81b0c:	a90217e4 	stp	x4, x5, [sp, #32]
   81b10:	a9031fe6 	stp	x6, x7, [sp, #48]
   81b14:	a90427e8 	stp	x8, x9, [sp, #64]
   81b18:	a9052fea 	stp	x10, x11, [sp, #80]
   81b1c:	a90637ec 	stp	x12, x13, [sp, #96]
   81b20:	a9073fee 	stp	x14, x15, [sp, #112]
   81b24:	a90847f0 	stp	x16, x17, [sp, #128]
   81b28:	a9094ff2 	stp	x18, x19, [sp, #144]
   81b2c:	a90e7bfd 	stp	x29, x30, [sp, #224]
    bl	gic_handle
   81b30:	97fffedc 	bl	816a0 <gic_handle>
    RESTORE_REGS
   81b34:	a94007e0 	ldp	x0, x1, [sp]
   81b38:	a9410fe2 	ldp	x2, x3, [sp, #16]
   81b3c:	a94217e4 	ldp	x4, x5, [sp, #32]
   81b40:	a9431fe6 	ldp	x6, x7, [sp, #48]
   81b44:	a94427e8 	ldp	x8, x9, [sp, #64]
   81b48:	a9452fea 	ldp	x10, x11, [sp, #80]
   81b4c:	a94637ec 	ldp	x12, x13, [sp, #96]
   81b50:	a9473fee 	ldp	x14, x15, [sp, #112]
   81b54:	a94847f0 	ldp	x16, x17, [sp, #128]
   81b58:	a9494ff2 	ldp	x18, x19, [sp, #144]
   81b5c:	a94e7bfd 	ldp	x29, x30, [sp, #224]
   81b60:	9102c3ff 	add	sp, sp, #0xb0
    eret
   81b64:	d69f03e0 	eret
   81b68:	d503201f 	nop
   81b6c:	d503201f 	nop
   81b70:	d503201f 	nop
   81b74:	d503201f 	nop
   81b78:	d503201f 	nop
   81b7c:	d503201f 	nop

0000000000081b80 <curr_el_spx_serror>:
.balign ENTRY_SIZE
curr_el_spx_serror:      
    b	.         
   81b80:	14000000 	b	81b80 <curr_el_spx_serror>
   81b84:	d503201f 	nop
   81b88:	d503201f 	nop
   81b8c:	d503201f 	nop
   81b90:	d503201f 	nop
   81b94:	d503201f 	nop
   81b98:	d503201f 	nop
   81b9c:	d503201f 	nop
   81ba0:	d503201f 	nop
   81ba4:	d503201f 	nop
   81ba8:	d503201f 	nop
   81bac:	d503201f 	nop
   81bb0:	d503201f 	nop
   81bb4:	d503201f 	nop
   81bb8:	d503201f 	nop
   81bbc:	d503201f 	nop
   81bc0:	d503201f 	nop
   81bc4:	d503201f 	nop
   81bc8:	d503201f 	nop
   81bcc:	d503201f 	nop
   81bd0:	d503201f 	nop
   81bd4:	d503201f 	nop
   81bd8:	d503201f 	nop
   81bdc:	d503201f 	nop
   81be0:	d503201f 	nop
   81be4:	d503201f 	nop
   81be8:	d503201f 	nop
   81bec:	d503201f 	nop
   81bf0:	d503201f 	nop
   81bf4:	d503201f 	nop
   81bf8:	d503201f 	nop
   81bfc:	d503201f 	nop

0000000000081c00 <lower_el_aarch64_sync>:
 * Lower EL using AArch64
 */  

.balign ENTRY_SIZE
lower_el_aarch64_sync:
    b .
   81c00:	14000000 	b	81c00 <lower_el_aarch64_sync>
   81c04:	d503201f 	nop
   81c08:	d503201f 	nop
   81c0c:	d503201f 	nop
   81c10:	d503201f 	nop
   81c14:	d503201f 	nop
   81c18:	d503201f 	nop
   81c1c:	d503201f 	nop
   81c20:	d503201f 	nop
   81c24:	d503201f 	nop
   81c28:	d503201f 	nop
   81c2c:	d503201f 	nop
   81c30:	d503201f 	nop
   81c34:	d503201f 	nop
   81c38:	d503201f 	nop
   81c3c:	d503201f 	nop
   81c40:	d503201f 	nop
   81c44:	d503201f 	nop
   81c48:	d503201f 	nop
   81c4c:	d503201f 	nop
   81c50:	d503201f 	nop
   81c54:	d503201f 	nop
   81c58:	d503201f 	nop
   81c5c:	d503201f 	nop
   81c60:	d503201f 	nop
   81c64:	d503201f 	nop
   81c68:	d503201f 	nop
   81c6c:	d503201f 	nop
   81c70:	d503201f 	nop
   81c74:	d503201f 	nop
   81c78:	d503201f 	nop
   81c7c:	d503201f 	nop

0000000000081c80 <lower_el_aarch64_irq>:
.balign ENTRY_SIZE
lower_el_aarch64_irq:    
    b .
   81c80:	14000000 	b	81c80 <lower_el_aarch64_irq>
   81c84:	d503201f 	nop
   81c88:	d503201f 	nop
   81c8c:	d503201f 	nop
   81c90:	d503201f 	nop
   81c94:	d503201f 	nop
   81c98:	d503201f 	nop
   81c9c:	d503201f 	nop
   81ca0:	d503201f 	nop
   81ca4:	d503201f 	nop
   81ca8:	d503201f 	nop
   81cac:	d503201f 	nop
   81cb0:	d503201f 	nop
   81cb4:	d503201f 	nop
   81cb8:	d503201f 	nop
   81cbc:	d503201f 	nop
   81cc0:	d503201f 	nop
   81cc4:	d503201f 	nop
   81cc8:	d503201f 	nop
   81ccc:	d503201f 	nop
   81cd0:	d503201f 	nop
   81cd4:	d503201f 	nop
   81cd8:	d503201f 	nop
   81cdc:	d503201f 	nop
   81ce0:	d503201f 	nop
   81ce4:	d503201f 	nop
   81ce8:	d503201f 	nop
   81cec:	d503201f 	nop
   81cf0:	d503201f 	nop
   81cf4:	d503201f 	nop
   81cf8:	d503201f 	nop
   81cfc:	d503201f 	nop

0000000000081d00 <lower_el_aarch64_fiq>:
.balign ENTRY_SIZE
lower_el_aarch64_fiq:    
    b	.
   81d00:	14000000 	b	81d00 <lower_el_aarch64_fiq>
   81d04:	d503201f 	nop
   81d08:	d503201f 	nop
   81d0c:	d503201f 	nop
   81d10:	d503201f 	nop
   81d14:	d503201f 	nop
   81d18:	d503201f 	nop
   81d1c:	d503201f 	nop
   81d20:	d503201f 	nop
   81d24:	d503201f 	nop
   81d28:	d503201f 	nop
   81d2c:	d503201f 	nop
   81d30:	d503201f 	nop
   81d34:	d503201f 	nop
   81d38:	d503201f 	nop
   81d3c:	d503201f 	nop
   81d40:	d503201f 	nop
   81d44:	d503201f 	nop
   81d48:	d503201f 	nop
   81d4c:	d503201f 	nop
   81d50:	d503201f 	nop
   81d54:	d503201f 	nop
   81d58:	d503201f 	nop
   81d5c:	d503201f 	nop
   81d60:	d503201f 	nop
   81d64:	d503201f 	nop
   81d68:	d503201f 	nop
   81d6c:	d503201f 	nop
   81d70:	d503201f 	nop
   81d74:	d503201f 	nop
   81d78:	d503201f 	nop
   81d7c:	d503201f 	nop

0000000000081d80 <lower_el_aarch64_serror>:
.balign ENTRY_SIZE
lower_el_aarch64_serror: 
    b	.          
   81d80:	14000000 	b	81d80 <lower_el_aarch64_serror>
   81d84:	d503201f 	nop
   81d88:	d503201f 	nop
   81d8c:	d503201f 	nop
   81d90:	d503201f 	nop
   81d94:	d503201f 	nop
   81d98:	d503201f 	nop
   81d9c:	d503201f 	nop
   81da0:	d503201f 	nop
   81da4:	d503201f 	nop
   81da8:	d503201f 	nop
   81dac:	d503201f 	nop
   81db0:	d503201f 	nop
   81db4:	d503201f 	nop
   81db8:	d503201f 	nop
   81dbc:	d503201f 	nop
   81dc0:	d503201f 	nop
   81dc4:	d503201f 	nop
   81dc8:	d503201f 	nop
   81dcc:	d503201f 	nop
   81dd0:	d503201f 	nop
   81dd4:	d503201f 	nop
   81dd8:	d503201f 	nop
   81ddc:	d503201f 	nop
   81de0:	d503201f 	nop
   81de4:	d503201f 	nop
   81de8:	d503201f 	nop
   81dec:	d503201f 	nop
   81df0:	d503201f 	nop
   81df4:	d503201f 	nop
   81df8:	d503201f 	nop
   81dfc:	d503201f 	nop

0000000000081e00 <lower_el_aarch32_sync>:
/* 
 * Lower EL using AArch32
 */  
.balign ENTRY_SIZE   
lower_el_aarch32_sync:   
    b	.
   81e00:	14000000 	b	81e00 <lower_el_aarch32_sync>
   81e04:	d503201f 	nop
   81e08:	d503201f 	nop
   81e0c:	d503201f 	nop
   81e10:	d503201f 	nop
   81e14:	d503201f 	nop
   81e18:	d503201f 	nop
   81e1c:	d503201f 	nop
   81e20:	d503201f 	nop
   81e24:	d503201f 	nop
   81e28:	d503201f 	nop
   81e2c:	d503201f 	nop
   81e30:	d503201f 	nop
   81e34:	d503201f 	nop
   81e38:	d503201f 	nop
   81e3c:	d503201f 	nop
   81e40:	d503201f 	nop
   81e44:	d503201f 	nop
   81e48:	d503201f 	nop
   81e4c:	d503201f 	nop
   81e50:	d503201f 	nop
   81e54:	d503201f 	nop
   81e58:	d503201f 	nop
   81e5c:	d503201f 	nop
   81e60:	d503201f 	nop
   81e64:	d503201f 	nop
   81e68:	d503201f 	nop
   81e6c:	d503201f 	nop
   81e70:	d503201f 	nop
   81e74:	d503201f 	nop
   81e78:	d503201f 	nop
   81e7c:	d503201f 	nop

0000000000081e80 <lower_el_aarch32_irq>:
.balign ENTRY_SIZE
lower_el_aarch32_irq:    
    b	.
   81e80:	14000000 	b	81e80 <lower_el_aarch32_irq>
   81e84:	d503201f 	nop
   81e88:	d503201f 	nop
   81e8c:	d503201f 	nop
   81e90:	d503201f 	nop
   81e94:	d503201f 	nop
   81e98:	d503201f 	nop
   81e9c:	d503201f 	nop
   81ea0:	d503201f 	nop
   81ea4:	d503201f 	nop
   81ea8:	d503201f 	nop
   81eac:	d503201f 	nop
   81eb0:	d503201f 	nop
   81eb4:	d503201f 	nop
   81eb8:	d503201f 	nop
   81ebc:	d503201f 	nop
   81ec0:	d503201f 	nop
   81ec4:	d503201f 	nop
   81ec8:	d503201f 	nop
   81ecc:	d503201f 	nop
   81ed0:	d503201f 	nop
   81ed4:	d503201f 	nop
   81ed8:	d503201f 	nop
   81edc:	d503201f 	nop
   81ee0:	d503201f 	nop
   81ee4:	d503201f 	nop
   81ee8:	d503201f 	nop
   81eec:	d503201f 	nop
   81ef0:	d503201f 	nop
   81ef4:	d503201f 	nop
   81ef8:	d503201f 	nop
   81efc:	d503201f 	nop

0000000000081f00 <lower_el_aarch32_fiq>:
.balign ENTRY_SIZE
lower_el_aarch32_fiq:    
    b	.
   81f00:	14000000 	b	81f00 <lower_el_aarch32_fiq>
   81f04:	d503201f 	nop
   81f08:	d503201f 	nop
   81f0c:	d503201f 	nop
   81f10:	d503201f 	nop
   81f14:	d503201f 	nop
   81f18:	d503201f 	nop
   81f1c:	d503201f 	nop
   81f20:	d503201f 	nop
   81f24:	d503201f 	nop
   81f28:	d503201f 	nop
   81f2c:	d503201f 	nop
   81f30:	d503201f 	nop
   81f34:	d503201f 	nop
   81f38:	d503201f 	nop
   81f3c:	d503201f 	nop
   81f40:	d503201f 	nop
   81f44:	d503201f 	nop
   81f48:	d503201f 	nop
   81f4c:	d503201f 	nop
   81f50:	d503201f 	nop
   81f54:	d503201f 	nop
   81f58:	d503201f 	nop
   81f5c:	d503201f 	nop
   81f60:	d503201f 	nop
   81f64:	d503201f 	nop
   81f68:	d503201f 	nop
   81f6c:	d503201f 	nop
   81f70:	d503201f 	nop
   81f74:	d503201f 	nop
   81f78:	d503201f 	nop
   81f7c:	d503201f 	nop

0000000000081f80 <lower_el_aarch32_serror>:
.balign ENTRY_SIZE
lower_el_aarch32_serror: 
    b	.
   81f80:	14000000 	b	81f80 <lower_el_aarch32_serror>
   81f84:	d503201f 	nop
   81f88:	d503201f 	nop
   81f8c:	d503201f 	nop
   81f90:	d503201f 	nop
   81f94:	d503201f 	nop
   81f98:	d503201f 	nop
   81f9c:	d503201f 	nop
   81fa0:	d503201f 	nop
   81fa4:	d503201f 	nop
   81fa8:	d503201f 	nop
   81fac:	d503201f 	nop
   81fb0:	d503201f 	nop
   81fb4:	d503201f 	nop
   81fb8:	d503201f 	nop
   81fbc:	d503201f 	nop
   81fc0:	d503201f 	nop
   81fc4:	d503201f 	nop
   81fc8:	d503201f 	nop
   81fcc:	d503201f 	nop
   81fd0:	d503201f 	nop
   81fd4:	d503201f 	nop
   81fd8:	d503201f 	nop
   81fdc:	d503201f 	nop
   81fe0:	d503201f 	nop
   81fe4:	d503201f 	nop
   81fe8:	d503201f 	nop
   81fec:	d503201f 	nop
   81ff0:	d503201f 	nop
   81ff4:	d503201f 	nop
   81ff8:	d503201f 	nop
   81ffc:	d503201f 	nop

0000000000082000 <__errno>:
   82000:	900000a0 	adrp	x0, 96000 <JIS_state_table+0x70>
   82004:	f9410000 	ldr	x0, [x0, #512]
   82008:	d65f03c0 	ret
   8200c:	00000000 	udf	#0

0000000000082010 <_printf_r>:
   82010:	a9b07bfd 	stp	x29, x30, [sp, #-256]!
   82014:	128005e9 	mov	w9, #0xffffffd0            	// #-48
   82018:	12800fe8 	mov	w8, #0xffffff80            	// #-128
   8201c:	910003fd 	mov	x29, sp
   82020:	910343ea 	add	x10, sp, #0xd0
   82024:	910403eb 	add	x11, sp, #0x100
   82028:	a9032feb 	stp	x11, x11, [sp, #48]
   8202c:	f90023ea 	str	x10, [sp, #64]
   82030:	290923e9 	stp	w9, w8, [sp, #72]
   82034:	3d8017e0 	str	q0, [sp, #80]
   82038:	ad41c3e0 	ldp	q0, q16, [sp, #48]
   8203c:	3d801be1 	str	q1, [sp, #96]
   82040:	3d801fe2 	str	q2, [sp, #112]
   82044:	3d8023e3 	str	q3, [sp, #128]
   82048:	3d8027e4 	str	q4, [sp, #144]
   8204c:	3d802be5 	str	q5, [sp, #160]
   82050:	3d802fe6 	str	q6, [sp, #176]
   82054:	3d8033e7 	str	q7, [sp, #192]
   82058:	a90d0fe2 	stp	x2, x3, [sp, #208]
   8205c:	aa0103e2 	mov	x2, x1
   82060:	910043e3 	add	x3, sp, #0x10
   82064:	a90e17e4 	stp	x4, x5, [sp, #224]
   82068:	a90f1fe6 	stp	x6, x7, [sp, #240]
   8206c:	ad00c3e0 	stp	q0, q16, [sp, #16]
   82070:	f9400801 	ldr	x1, [x0, #16]
   82074:	9400109f 	bl	862f0 <_vfprintf_r>
   82078:	a8d07bfd 	ldp	x29, x30, [sp], #256
   8207c:	d65f03c0 	ret

0000000000082080 <printf>:
   82080:	a9af7bfd 	stp	x29, x30, [sp, #-272]!
   82084:	128006eb 	mov	w11, #0xffffffc8            	// #-56
   82088:	12800fea 	mov	w10, #0xffffff80            	// #-128
   8208c:	910003fd 	mov	x29, sp
   82090:	910343ec 	add	x12, sp, #0xd0
   82094:	910443e8 	add	x8, sp, #0x110
   82098:	900000a9 	adrp	x9, 96000 <JIS_state_table+0x70>
   8209c:	a90323e8 	stp	x8, x8, [sp, #48]
   820a0:	aa0003e8 	mov	x8, x0
   820a4:	f90023ec 	str	x12, [sp, #64]
   820a8:	29092beb 	stp	w11, w10, [sp, #72]
   820ac:	f9410120 	ldr	x0, [x9, #512]
   820b0:	3d8017e0 	str	q0, [sp, #80]
   820b4:	ad41c3e0 	ldp	q0, q16, [sp, #48]
   820b8:	3d801be1 	str	q1, [sp, #96]
   820bc:	3d801fe2 	str	q2, [sp, #112]
   820c0:	3d8023e3 	str	q3, [sp, #128]
   820c4:	3d8027e4 	str	q4, [sp, #144]
   820c8:	3d802be5 	str	q5, [sp, #160]
   820cc:	3d802fe6 	str	q6, [sp, #176]
   820d0:	3d8033e7 	str	q7, [sp, #192]
   820d4:	a90d8be1 	stp	x1, x2, [sp, #216]
   820d8:	aa0803e2 	mov	x2, x8
   820dc:	a90e93e3 	stp	x3, x4, [sp, #232]
   820e0:	910043e3 	add	x3, sp, #0x10
   820e4:	a90f9be5 	stp	x5, x6, [sp, #248]
   820e8:	f90087e7 	str	x7, [sp, #264]
   820ec:	ad00c3e0 	stp	q0, q16, [sp, #16]
   820f0:	f9400801 	ldr	x1, [x0, #16]
   820f4:	9400107f 	bl	862f0 <_vfprintf_r>
   820f8:	a8d17bfd 	ldp	x29, x30, [sp], #272
   820fc:	d65f03c0 	ret

0000000000082100 <_putchar_r>:
   82100:	f9400802 	ldr	x2, [x0, #16]
   82104:	14002cbb 	b	8d3f0 <_putc_r>
	...

0000000000082110 <putchar>:
   82110:	900000a2 	adrp	x2, 96000 <JIS_state_table+0x70>
   82114:	2a0003e1 	mov	w1, w0
   82118:	f9410040 	ldr	x0, [x2, #512]
   8211c:	f9400802 	ldr	x2, [x0, #16]
   82120:	14002cb4 	b	8d3f0 <_putc_r>
	...

0000000000082130 <_puts_r>:
   82130:	a9ba7bfd 	stp	x29, x30, [sp, #-96]!
   82134:	910003fd 	mov	x29, sp
   82138:	a90153f3 	stp	x19, x20, [sp, #16]
   8213c:	aa0003f4 	mov	x20, x0
   82140:	aa0103f3 	mov	x19, x1
   82144:	aa0103e0 	mov	x0, x1
   82148:	9400020e 	bl	82980 <strlen>
   8214c:	f9402682 	ldr	x2, [x20, #72]
   82150:	91000404 	add	x4, x0, #0x1
   82154:	910103e6 	add	x6, sp, #0x40
   82158:	f0000081 	adrp	x1, 95000 <pmu_event_descr+0x60>
   8215c:	d2800023 	mov	x3, #0x1                   	// #1
   82160:	91170021 	add	x1, x1, #0x5c0
   82164:	52800045 	mov	w5, #0x2                   	// #2
   82168:	f90017e6 	str	x6, [sp, #40]
   8216c:	b90033e5 	str	w5, [sp, #48]
   82170:	a903cfe4 	stp	x4, x19, [sp, #56]
   82174:	a90487e0 	stp	x0, x1, [sp, #72]
   82178:	f9002fe3 	str	x3, [sp, #88]
   8217c:	f9400a93 	ldr	x19, [x20, #16]
   82180:	b4000482 	cbz	x2, 82210 <_puts_r+0xe0>
   82184:	b940b261 	ldr	w1, [x19, #176]
   82188:	79c02260 	ldrsh	w0, [x19, #16]
   8218c:	37000041 	tbnz	w1, #0, 82194 <_puts_r+0x64>
   82190:	36480380 	tbz	w0, #9, 82200 <_puts_r+0xd0>
   82194:	376800c0 	tbnz	w0, #13, 821ac <_puts_r+0x7c>
   82198:	b940b261 	ldr	w1, [x19, #176]
   8219c:	32130000 	orr	w0, w0, #0x2000
   821a0:	79002260 	strh	w0, [x19, #16]
   821a4:	12127820 	and	w0, w1, #0xffffdfff
   821a8:	b900b260 	str	w0, [x19, #176]
   821ac:	aa1403e0 	mov	x0, x20
   821b0:	aa1303e1 	mov	x1, x19
   821b4:	9100a3e2 	add	x2, sp, #0x28
   821b8:	9400028e 	bl	82bf0 <__sfvwrite_r>
   821bc:	b940b261 	ldr	w1, [x19, #176]
   821c0:	7100001f 	cmp	w0, #0x0
   821c4:	52800154 	mov	w20, #0xa                   	// #10
   821c8:	5a9f0294 	csinv	w20, w20, wzr, eq	// eq = none
   821cc:	37000061 	tbnz	w1, #0, 821d8 <_puts_r+0xa8>
   821d0:	79402260 	ldrh	w0, [x19, #16]
   821d4:	364800a0 	tbz	w0, #9, 821e8 <_puts_r+0xb8>
   821d8:	2a1403e0 	mov	w0, w20
   821dc:	a94153f3 	ldp	x19, x20, [sp, #16]
   821e0:	a8c67bfd 	ldp	x29, x30, [sp], #96
   821e4:	d65f03c0 	ret
   821e8:	f9405260 	ldr	x0, [x19, #160]
   821ec:	94002761 	bl	8bf70 <__retarget_lock_release_recursive>
   821f0:	2a1403e0 	mov	w0, w20
   821f4:	a94153f3 	ldp	x19, x20, [sp, #16]
   821f8:	a8c67bfd 	ldp	x29, x30, [sp], #96
   821fc:	d65f03c0 	ret
   82200:	f9405260 	ldr	x0, [x19, #160]
   82204:	9400274b 	bl	8bf30 <__retarget_lock_acquire_recursive>
   82208:	79c02260 	ldrsh	w0, [x19, #16]
   8220c:	17ffffe2 	b	82194 <_puts_r+0x64>
   82210:	aa1403e0 	mov	x0, x20
   82214:	940000fb 	bl	82600 <__sinit>
   82218:	17ffffdb 	b	82184 <_puts_r+0x54>
   8221c:	00000000 	udf	#0

0000000000082220 <puts>:
   82220:	900000a2 	adrp	x2, 96000 <JIS_state_table+0x70>
   82224:	aa0003e1 	mov	x1, x0
   82228:	f9410040 	ldr	x0, [x2, #512]
   8222c:	17ffffc1 	b	82130 <_puts_r>

0000000000082230 <stdio_exit_handler>:
   82230:	900000a2 	adrp	x2, 96000 <JIS_state_table+0x70>
   82234:	d0000041 	adrp	x1, 8c000 <currentlocale+0x80>
   82238:	910d8042 	add	x2, x2, #0x360
   8223c:	9131c021 	add	x1, x1, #0xc70
   82240:	900000a0 	adrp	x0, 96000 <JIS_state_table+0x70>
   82244:	91082000 	add	x0, x0, #0x208
   82248:	140003b6 	b	83120 <_fwalk_sglue>
   8224c:	00000000 	udf	#0

0000000000082250 <cleanup_stdio>:
   82250:	a9be7bfd 	stp	x29, x30, [sp, #-32]!
   82254:	90001402 	adrp	x2, 302000 <irq_handlers+0x1370>
   82258:	9132c042 	add	x2, x2, #0xcb0
   8225c:	910003fd 	mov	x29, sp
   82260:	f9400401 	ldr	x1, [x0, #8]
   82264:	f9000bf3 	str	x19, [sp, #16]
   82268:	aa0003f3 	mov	x19, x0
   8226c:	eb02003f 	cmp	x1, x2
   82270:	54000040 	b.eq	82278 <cleanup_stdio+0x28>  // b.none
   82274:	94002a7f 	bl	8cc70 <_fclose_r>
   82278:	f9400a61 	ldr	x1, [x19, #16]
   8227c:	90001400 	adrp	x0, 302000 <irq_handlers+0x1370>
   82280:	9135a000 	add	x0, x0, #0xd68
   82284:	eb00003f 	cmp	x1, x0
   82288:	54000060 	b.eq	82294 <cleanup_stdio+0x44>  // b.none
   8228c:	aa1303e0 	mov	x0, x19
   82290:	94002a78 	bl	8cc70 <_fclose_r>
   82294:	f9400e61 	ldr	x1, [x19, #24]
   82298:	90001400 	adrp	x0, 302000 <irq_handlers+0x1370>
   8229c:	91388000 	add	x0, x0, #0xe20
   822a0:	eb00003f 	cmp	x1, x0
   822a4:	540000a0 	b.eq	822b8 <cleanup_stdio+0x68>  // b.none
   822a8:	aa1303e0 	mov	x0, x19
   822ac:	f9400bf3 	ldr	x19, [sp, #16]
   822b0:	a8c27bfd 	ldp	x29, x30, [sp], #32
   822b4:	14002a6f 	b	8cc70 <_fclose_r>
   822b8:	f9400bf3 	ldr	x19, [sp, #16]
   822bc:	a8c27bfd 	ldp	x29, x30, [sp], #32
   822c0:	d65f03c0 	ret
	...

00000000000822d0 <__fp_lock>:
   822d0:	b940b020 	ldr	w0, [x1, #176]
   822d4:	37000060 	tbnz	w0, #0, 822e0 <__fp_lock+0x10>
   822d8:	79402020 	ldrh	w0, [x1, #16]
   822dc:	36480060 	tbz	w0, #9, 822e8 <__fp_lock+0x18>
   822e0:	52800000 	mov	w0, #0x0                   	// #0
   822e4:	d65f03c0 	ret
   822e8:	a9bf7bfd 	stp	x29, x30, [sp, #-16]!
   822ec:	910003fd 	mov	x29, sp
   822f0:	f9405020 	ldr	x0, [x1, #160]
   822f4:	9400270f 	bl	8bf30 <__retarget_lock_acquire_recursive>
   822f8:	52800000 	mov	w0, #0x0                   	// #0
   822fc:	a8c17bfd 	ldp	x29, x30, [sp], #16
   82300:	d65f03c0 	ret
	...

0000000000082310 <__fp_unlock>:
   82310:	b940b020 	ldr	w0, [x1, #176]
   82314:	37000060 	tbnz	w0, #0, 82320 <__fp_unlock+0x10>
   82318:	79402020 	ldrh	w0, [x1, #16]
   8231c:	36480060 	tbz	w0, #9, 82328 <__fp_unlock+0x18>
   82320:	52800000 	mov	w0, #0x0                   	// #0
   82324:	d65f03c0 	ret
   82328:	a9bf7bfd 	stp	x29, x30, [sp, #-16]!
   8232c:	910003fd 	mov	x29, sp
   82330:	f9405020 	ldr	x0, [x1, #160]
   82334:	9400270f 	bl	8bf70 <__retarget_lock_release_recursive>
   82338:	52800000 	mov	w0, #0x0                   	// #0
   8233c:	a8c17bfd 	ldp	x29, x30, [sp], #16
   82340:	d65f03c0 	ret
	...

0000000000082350 <global_stdio_init.part.0>:
   82350:	a9bc7bfd 	stp	x29, x30, [sp, #-64]!
   82354:	90001400 	adrp	x0, 302000 <irq_handlers+0x1370>
   82358:	90000003 	adrp	x3, 82000 <__errno>
   8235c:	910003fd 	mov	x29, sp
   82360:	9108c063 	add	x3, x3, #0x230
   82364:	a90153f3 	stp	x19, x20, [sp, #16]
   82368:	9132c013 	add	x19, x0, #0xcb0
   8236c:	90001405 	adrp	x5, 302000 <irq_handlers+0x1370>
   82370:	52800084 	mov	w4, #0x4                   	// #4
   82374:	d2800102 	mov	x2, #0x8                   	// #8
   82378:	52800001 	mov	w1, #0x0                   	// #0
   8237c:	a9025bf5 	stp	x21, x22, [sp, #32]
   82380:	90000014 	adrp	x20, 82000 <__errno>
   82384:	90000016 	adrp	x22, 82000 <__errno>
   82388:	f9001bf7 	str	x23, [sp, #48]
   8238c:	912c82d6 	add	x22, x22, #0xb20
   82390:	f9076ca3 	str	x3, [x5, #3800]
   82394:	912f8294 	add	x20, x20, #0xbe0
   82398:	f906581f 	str	xzr, [x0, #3248]
   8239c:	90001400 	adrp	x0, 302000 <irq_handlers+0x1370>
   823a0:	91356000 	add	x0, x0, #0xd58
   823a4:	f900067f 	str	xzr, [x19, #8]
   823a8:	b9001264 	str	w4, [x19, #16]
   823ac:	90000015 	adrp	x21, 82000 <__errno>
   823b0:	f9000e7f 	str	xzr, [x19, #24]
   823b4:	912e42b5 	add	x21, x21, #0xb90
   823b8:	b900227f 	str	wzr, [x19, #32]
   823bc:	90000017 	adrp	x23, 82000 <__errno>
   823c0:	b9002a7f 	str	wzr, [x19, #40]
   823c4:	912b02f7 	add	x23, x23, #0xac0
   823c8:	b900b27f 	str	wzr, [x19, #176]
   823cc:	94002c7d 	bl	8d5c0 <memset>
   823d0:	90001400 	adrp	x0, 302000 <irq_handlers+0x1370>
   823d4:	91354000 	add	x0, x0, #0xd50
   823d8:	a9035e73 	stp	x19, x23, [x19, #48]
   823dc:	a9045676 	stp	x22, x21, [x19, #64]
   823e0:	f9002a74 	str	x20, [x19, #80]
   823e4:	940026c3 	bl	8bef0 <__retarget_lock_init_recursive>
   823e8:	52800123 	mov	w3, #0x9                   	// #9
   823ec:	d2800102 	mov	x2, #0x8                   	// #8
   823f0:	72a00023 	movk	w3, #0x1, lsl #16
   823f4:	52800001 	mov	w1, #0x0                   	// #0
   823f8:	90001400 	adrp	x0, 302000 <irq_handlers+0x1370>
   823fc:	91384000 	add	x0, x0, #0xe10
   82400:	f9005e7f 	str	xzr, [x19, #184]
   82404:	f900627f 	str	xzr, [x19, #192]
   82408:	b900ca63 	str	w3, [x19, #200]
   8240c:	f9006a7f 	str	xzr, [x19, #208]
   82410:	b900da7f 	str	wzr, [x19, #216]
   82414:	b900e27f 	str	wzr, [x19, #224]
   82418:	b9016a7f 	str	wzr, [x19, #360]
   8241c:	94002c69 	bl	8d5c0 <memset>
   82420:	90001401 	adrp	x1, 302000 <irq_handlers+0x1370>
   82424:	9135a021 	add	x1, x1, #0xd68
   82428:	90001400 	adrp	x0, 302000 <irq_handlers+0x1370>
   8242c:	91382000 	add	x0, x0, #0xe08
   82430:	a90ede61 	stp	x1, x23, [x19, #232]
   82434:	a90fd676 	stp	x22, x21, [x19, #248]
   82438:	f9008674 	str	x20, [x19, #264]
   8243c:	940026ad 	bl	8bef0 <__retarget_lock_init_recursive>
   82440:	52800243 	mov	w3, #0x12                  	// #18
   82444:	d2800102 	mov	x2, #0x8                   	// #8
   82448:	72a00043 	movk	w3, #0x2, lsl #16
   8244c:	52800001 	mov	w1, #0x0                   	// #0
   82450:	90001400 	adrp	x0, 302000 <irq_handlers+0x1370>
   82454:	913b2000 	add	x0, x0, #0xec8
   82458:	f900ba7f 	str	xzr, [x19, #368]
   8245c:	f900be7f 	str	xzr, [x19, #376]
   82460:	b9018263 	str	w3, [x19, #384]
   82464:	f900c67f 	str	xzr, [x19, #392]
   82468:	b901927f 	str	wzr, [x19, #400]
   8246c:	b9019a7f 	str	wzr, [x19, #408]
   82470:	b902227f 	str	wzr, [x19, #544]
   82474:	94002c53 	bl	8d5c0 <memset>
   82478:	90001401 	adrp	x1, 302000 <irq_handlers+0x1370>
   8247c:	91388021 	add	x1, x1, #0xe20
   82480:	a91a5e61 	stp	x1, x23, [x19, #416]
   82484:	90001400 	adrp	x0, 302000 <irq_handlers+0x1370>
   82488:	913b0000 	add	x0, x0, #0xec0
   8248c:	a91b5676 	stp	x22, x21, [x19, #432]
   82490:	f900e274 	str	x20, [x19, #448]
   82494:	a94153f3 	ldp	x19, x20, [sp, #16]
   82498:	a9425bf5 	ldp	x21, x22, [sp, #32]
   8249c:	f9401bf7 	ldr	x23, [sp, #48]
   824a0:	a8c47bfd 	ldp	x29, x30, [sp], #64
   824a4:	14002693 	b	8bef0 <__retarget_lock_init_recursive>
	...

00000000000824b0 <__sfp>:
   824b0:	a9bc7bfd 	stp	x29, x30, [sp, #-64]!
   824b4:	910003fd 	mov	x29, sp
   824b8:	a9025bf5 	stp	x21, x22, [sp, #32]
   824bc:	90001415 	adrp	x21, 302000 <irq_handlers+0x1370>
   824c0:	913d62b5 	add	x21, x21, #0xf58
   824c4:	aa0003f6 	mov	x22, x0
   824c8:	aa1503e0 	mov	x0, x21
   824cc:	a90153f3 	stp	x19, x20, [sp, #16]
   824d0:	f9001bf7 	str	x23, [sp, #48]
   824d4:	94002697 	bl	8bf30 <__retarget_lock_acquire_recursive>
   824d8:	90001400 	adrp	x0, 302000 <irq_handlers+0x1370>
   824dc:	f9476c00 	ldr	x0, [x0, #3800]
   824e0:	b40007a0 	cbz	x0, 825d4 <__sfp+0x124>
   824e4:	900000b4 	adrp	x20, 96000 <JIS_state_table+0x70>
   824e8:	910d8294 	add	x20, x20, #0x360
   824ec:	52801717 	mov	w23, #0xb8                  	// #184
   824f0:	b9400a82 	ldr	w2, [x20, #8]
   824f4:	f9400a93 	ldr	x19, [x20, #16]
   824f8:	7100005f 	cmp	w2, #0x0
   824fc:	5400044d 	b.le	82584 <__sfp+0xd4>
   82500:	9bb74c42 	umaddl	x2, w2, w23, x19
   82504:	14000004 	b	82514 <__sfp+0x64>
   82508:	9102e273 	add	x19, x19, #0xb8
   8250c:	eb02027f 	cmp	x19, x2
   82510:	540003a0 	b.eq	82584 <__sfp+0xd4>  // b.none
   82514:	79c02261 	ldrsh	w1, [x19, #16]
   82518:	35ffff81 	cbnz	w1, 82508 <__sfp+0x58>
   8251c:	129fffc0 	mov	w0, #0xffff0001            	// #-65535
   82520:	b9001260 	str	w0, [x19, #16]
   82524:	b900b27f 	str	wzr, [x19, #176]
   82528:	91028260 	add	x0, x19, #0xa0
   8252c:	94002671 	bl	8bef0 <__retarget_lock_init_recursive>
   82530:	aa1503e0 	mov	x0, x21
   82534:	9400268f 	bl	8bf70 <__retarget_lock_release_recursive>
   82538:	f900027f 	str	xzr, [x19]
   8253c:	9102a260 	add	x0, x19, #0xa8
   82540:	f900067f 	str	xzr, [x19, #8]
   82544:	d2800102 	mov	x2, #0x8                   	// #8
   82548:	f9000e7f 	str	xzr, [x19, #24]
   8254c:	52800001 	mov	w1, #0x0                   	// #0
   82550:	b900227f 	str	wzr, [x19, #32]
   82554:	b9002a7f 	str	wzr, [x19, #40]
   82558:	94002c1a 	bl	8d5c0 <memset>
   8255c:	f9002e7f 	str	xzr, [x19, #88]
   82560:	b900627f 	str	wzr, [x19, #96]
   82564:	f9003e7f 	str	xzr, [x19, #120]
   82568:	b900827f 	str	wzr, [x19, #128]
   8256c:	a9425bf5 	ldp	x21, x22, [sp, #32]
   82570:	aa1303e0 	mov	x0, x19
   82574:	a94153f3 	ldp	x19, x20, [sp, #16]
   82578:	f9401bf7 	ldr	x23, [sp, #48]
   8257c:	a8c47bfd 	ldp	x29, x30, [sp], #64
   82580:	d65f03c0 	ret
   82584:	f9400293 	ldr	x19, [x20]
   82588:	b4000073 	cbz	x19, 82594 <__sfp+0xe4>
   8258c:	aa1303f4 	mov	x20, x19
   82590:	17ffffd8 	b	824f0 <__sfp+0x40>
   82594:	aa1603e0 	mov	x0, x22
   82598:	d2805f01 	mov	x1, #0x2f8                 	// #760
   8259c:	940023f9 	bl	8b580 <_malloc_r>
   825a0:	aa0003f3 	mov	x19, x0
   825a4:	b40001c0 	cbz	x0, 825dc <__sfp+0x12c>
   825a8:	91006000 	add	x0, x0, #0x18
   825ac:	52800081 	mov	w1, #0x4                   	// #4
   825b0:	f900027f 	str	xzr, [x19]
   825b4:	d2805c02 	mov	x2, #0x2e0                 	// #736
   825b8:	b9000a61 	str	w1, [x19, #8]
   825bc:	52800001 	mov	w1, #0x0                   	// #0
   825c0:	f9000a60 	str	x0, [x19, #16]
   825c4:	94002bff 	bl	8d5c0 <memset>
   825c8:	f9000293 	str	x19, [x20]
   825cc:	aa1303f4 	mov	x20, x19
   825d0:	17ffffc8 	b	824f0 <__sfp+0x40>
   825d4:	97ffff5f 	bl	82350 <global_stdio_init.part.0>
   825d8:	17ffffc3 	b	824e4 <__sfp+0x34>
   825dc:	f900029f 	str	xzr, [x20]
   825e0:	aa1503e0 	mov	x0, x21
   825e4:	94002663 	bl	8bf70 <__retarget_lock_release_recursive>
   825e8:	52800180 	mov	w0, #0xc                   	// #12
   825ec:	b90002c0 	str	w0, [x22]
   825f0:	17ffffdf 	b	8256c <__sfp+0xbc>
	...

0000000000082600 <__sinit>:
   82600:	a9be7bfd 	stp	x29, x30, [sp, #-32]!
   82604:	910003fd 	mov	x29, sp
   82608:	a90153f3 	stp	x19, x20, [sp, #16]
   8260c:	aa0003f4 	mov	x20, x0
   82610:	90001413 	adrp	x19, 302000 <irq_handlers+0x1370>
   82614:	913d6273 	add	x19, x19, #0xf58
   82618:	aa1303e0 	mov	x0, x19
   8261c:	94002645 	bl	8bf30 <__retarget_lock_acquire_recursive>
   82620:	f9402680 	ldr	x0, [x20, #72]
   82624:	b50000e0 	cbnz	x0, 82640 <__sinit+0x40>
   82628:	90001401 	adrp	x1, 302000 <irq_handlers+0x1370>
   8262c:	90000000 	adrp	x0, 82000 <__errno>
   82630:	91094000 	add	x0, x0, #0x250
   82634:	f9002680 	str	x0, [x20, #72]
   82638:	f9476c20 	ldr	x0, [x1, #3800]
   8263c:	b40000a0 	cbz	x0, 82650 <__sinit+0x50>
   82640:	aa1303e0 	mov	x0, x19
   82644:	a94153f3 	ldp	x19, x20, [sp, #16]
   82648:	a8c27bfd 	ldp	x29, x30, [sp], #32
   8264c:	14002649 	b	8bf70 <__retarget_lock_release_recursive>
   82650:	97ffff40 	bl	82350 <global_stdio_init.part.0>
   82654:	aa1303e0 	mov	x0, x19
   82658:	a94153f3 	ldp	x19, x20, [sp, #16]
   8265c:	a8c27bfd 	ldp	x29, x30, [sp], #32
   82660:	14002644 	b	8bf70 <__retarget_lock_release_recursive>
	...

0000000000082670 <__sfp_lock_acquire>:
   82670:	90001400 	adrp	x0, 302000 <irq_handlers+0x1370>
   82674:	913d6000 	add	x0, x0, #0xf58
   82678:	1400262e 	b	8bf30 <__retarget_lock_acquire_recursive>
   8267c:	00000000 	udf	#0

0000000000082680 <__sfp_lock_release>:
   82680:	90001400 	adrp	x0, 302000 <irq_handlers+0x1370>
   82684:	913d6000 	add	x0, x0, #0xf58
   82688:	1400263a 	b	8bf70 <__retarget_lock_release_recursive>
   8268c:	00000000 	udf	#0

0000000000082690 <__fp_lock_all>:
   82690:	a9bf7bfd 	stp	x29, x30, [sp, #-16]!
   82694:	90001400 	adrp	x0, 302000 <irq_handlers+0x1370>
   82698:	913d6000 	add	x0, x0, #0xf58
   8269c:	910003fd 	mov	x29, sp
   826a0:	94002624 	bl	8bf30 <__retarget_lock_acquire_recursive>
   826a4:	a8c17bfd 	ldp	x29, x30, [sp], #16
   826a8:	900000a2 	adrp	x2, 96000 <JIS_state_table+0x70>
   826ac:	90000001 	adrp	x1, 82000 <__errno>
   826b0:	910d8042 	add	x2, x2, #0x360
   826b4:	910b4021 	add	x1, x1, #0x2d0
   826b8:	d2800000 	mov	x0, #0x0                   	// #0
   826bc:	14000299 	b	83120 <_fwalk_sglue>

00000000000826c0 <__fp_unlock_all>:
   826c0:	a9bf7bfd 	stp	x29, x30, [sp, #-16]!
   826c4:	900000a2 	adrp	x2, 96000 <JIS_state_table+0x70>
   826c8:	90000001 	adrp	x1, 82000 <__errno>
   826cc:	910003fd 	mov	x29, sp
   826d0:	910d8042 	add	x2, x2, #0x360
   826d4:	910c4021 	add	x1, x1, #0x310
   826d8:	d2800000 	mov	x0, #0x0                   	// #0
   826dc:	94000291 	bl	83120 <_fwalk_sglue>
   826e0:	a8c17bfd 	ldp	x29, x30, [sp], #16
   826e4:	90001400 	adrp	x0, 302000 <irq_handlers+0x1370>
   826e8:	913d6000 	add	x0, x0, #0xf58
   826ec:	14002621 	b	8bf70 <__retarget_lock_release_recursive>

00000000000826f0 <_snprintf_r>:
   826f0:	a9a47bfd 	stp	x29, x30, [sp, #-448]!
   826f4:	aa0203e8 	mov	x8, x2
   826f8:	aa0303e2 	mov	x2, x3
   826fc:	910003fd 	mov	x29, sp
   82700:	f9000bf3 	str	x19, [sp, #16]
   82704:	b2407be3 	mov	x3, #0x7fffffff            	// #2147483647
   82708:	3d804be0 	str	q0, [sp, #288]
   8270c:	aa0003f3 	mov	x19, x0
   82710:	3d804fe1 	str	q1, [sp, #304]
   82714:	3d8053e2 	str	q2, [sp, #320]
   82718:	3d8057e3 	str	q3, [sp, #336]
   8271c:	3d805be4 	str	q4, [sp, #352]
   82720:	3d805fe5 	str	q5, [sp, #368]
   82724:	3d8063e6 	str	q6, [sp, #384]
   82728:	3d8067e7 	str	q7, [sp, #400]
   8272c:	a91a17e4 	stp	x4, x5, [sp, #416]
   82730:	a91b1fe6 	stp	x6, x7, [sp, #432]
   82734:	eb03011f 	cmp	x8, x3
   82738:	54000668 	b.hi	82804 <_snprintf_r+0x114>  // b.pmore
   8273c:	52804103 	mov	w3, #0x208                 	// #520
   82740:	910683e4 	add	x4, sp, #0x1a0
   82744:	910703e5 	add	x5, sp, #0x1c0
   82748:	a90497e5 	stp	x5, x5, [sp, #72]
   8274c:	f9002fe4 	str	x4, [sp, #88]
   82750:	f90037e1 	str	x1, [sp, #104]
   82754:	7900f3e3 	strh	w3, [sp, #120]
   82758:	128003e3 	mov	w3, #0xffffffe0            	// #-32
   8275c:	f90043e1 	str	x1, [sp, #128]
   82760:	12800fe1 	mov	w1, #0xffffff80            	// #-128
   82764:	b40002c8 	cbz	x8, 827bc <_snprintf_r+0xcc>
   82768:	910123e5 	add	x5, sp, #0x48
   8276c:	290c07e3 	stp	w3, w1, [sp, #96]
   82770:	51000508 	sub	w8, w8, #0x1
   82774:	12800004 	mov	w4, #0xffffffff            	// #-1
   82778:	910083e3 	add	x3, sp, #0x20
   8277c:	9101a3e1 	add	x1, sp, #0x68
   82780:	ad4004a0 	ldp	q0, q1, [x5]
   82784:	b90077e8 	str	w8, [sp, #116]
   82788:	7900f7e4 	strh	w4, [sp, #122]
   8278c:	b9008be8 	str	w8, [sp, #136]
   82790:	ad0107e0 	stp	q0, q1, [sp, #32]
   82794:	9400028b 	bl	831c0 <_svfprintf_r>
   82798:	3100041f 	cmn	w0, #0x1
   8279c:	5400006a 	b.ge	827a8 <_snprintf_r+0xb8>  // b.tcont
   827a0:	52801161 	mov	w1, #0x8b                  	// #139
   827a4:	b9000261 	str	w1, [x19]
   827a8:	f94037e1 	ldr	x1, [sp, #104]
   827ac:	3900003f 	strb	wzr, [x1]
   827b0:	f9400bf3 	ldr	x19, [sp, #16]
   827b4:	a8dc7bfd 	ldp	x29, x30, [sp], #448
   827b8:	d65f03c0 	ret
   827bc:	910123e5 	add	x5, sp, #0x48
   827c0:	290c07e3 	stp	w3, w1, [sp, #96]
   827c4:	12800004 	mov	w4, #0xffffffff            	// #-1
   827c8:	910083e3 	add	x3, sp, #0x20
   827cc:	9101a3e1 	add	x1, sp, #0x68
   827d0:	b90077ff 	str	wzr, [sp, #116]
   827d4:	ad4004a0 	ldp	q0, q1, [x5]
   827d8:	7900f7e4 	strh	w4, [sp, #122]
   827dc:	b9008bff 	str	wzr, [sp, #136]
   827e0:	ad0107e0 	stp	q0, q1, [sp, #32]
   827e4:	94000277 	bl	831c0 <_svfprintf_r>
   827e8:	3100041f 	cmn	w0, #0x1
   827ec:	5400006a 	b.ge	827f8 <_snprintf_r+0x108>  // b.tcont
   827f0:	52801161 	mov	w1, #0x8b                  	// #139
   827f4:	b9000261 	str	w1, [x19]
   827f8:	f9400bf3 	ldr	x19, [sp, #16]
   827fc:	a8dc7bfd 	ldp	x29, x30, [sp], #448
   82800:	d65f03c0 	ret
   82804:	52801161 	mov	w1, #0x8b                  	// #139
   82808:	12800000 	mov	w0, #0xffffffff            	// #-1
   8280c:	b9000261 	str	w1, [x19]
   82810:	17fffffa 	b	827f8 <_snprintf_r+0x108>
	...

0000000000082820 <snprintf>:
   82820:	a9a37bfd 	stp	x29, x30, [sp, #-464]!
   82824:	900000a9 	adrp	x9, 96000 <JIS_state_table+0x70>
   82828:	b2407be8 	mov	x8, #0x7fffffff            	// #2147483647
   8282c:	910003fd 	mov	x29, sp
   82830:	f9000bf3 	str	x19, [sp, #16]
   82834:	3d804be0 	str	q0, [sp, #288]
   82838:	3d804fe1 	str	q1, [sp, #304]
   8283c:	3d8053e2 	str	q2, [sp, #320]
   82840:	3d8057e3 	str	q3, [sp, #336]
   82844:	3d805be4 	str	q4, [sp, #352]
   82848:	3d805fe5 	str	q5, [sp, #368]
   8284c:	3d8063e6 	str	q6, [sp, #384]
   82850:	3d8067e7 	str	q7, [sp, #400]
   82854:	a91a93e3 	stp	x3, x4, [sp, #424]
   82858:	a91b9be5 	stp	x5, x6, [sp, #440]
   8285c:	f900e7e7 	str	x7, [sp, #456]
   82860:	f9410133 	ldr	x19, [x9, #512]
   82864:	eb08003f 	cmp	x1, x8
   82868:	54000768 	b.hi	82954 <snprintf+0x134>  // b.pmore
   8286c:	52804103 	mov	w3, #0x208                 	// #520
   82870:	f90037e0 	str	x0, [sp, #104]
   82874:	7900f3e3 	strh	w3, [sp, #120]
   82878:	f90043e0 	str	x0, [sp, #128]
   8287c:	b40003a1 	cbz	x1, 828f0 <snprintf+0xd0>
   82880:	910123e6 	add	x6, sp, #0x48
   82884:	910683e4 	add	x4, sp, #0x1a0
   82888:	910743e5 	add	x5, sp, #0x1d0
   8288c:	128004e3 	mov	w3, #0xffffffd8            	// #-40
   82890:	12800fe0 	mov	w0, #0xffffff80            	// #-128
   82894:	a90497e5 	stp	x5, x5, [sp, #72]
   82898:	12800005 	mov	w5, #0xffffffff            	// #-1
   8289c:	f9002fe4 	str	x4, [sp, #88]
   828a0:	51000424 	sub	w4, w1, #0x1
   828a4:	290c03e3 	stp	w3, w0, [sp, #96]
   828a8:	9101a3e1 	add	x1, sp, #0x68
   828ac:	910083e3 	add	x3, sp, #0x20
   828b0:	aa1303e0 	mov	x0, x19
   828b4:	ad4004c0 	ldp	q0, q1, [x6]
   828b8:	b90077e4 	str	w4, [sp, #116]
   828bc:	7900f7e5 	strh	w5, [sp, #122]
   828c0:	b9008be4 	str	w4, [sp, #136]
   828c4:	ad0107e0 	stp	q0, q1, [sp, #32]
   828c8:	9400023e 	bl	831c0 <_svfprintf_r>
   828cc:	3100041f 	cmn	w0, #0x1
   828d0:	5400006a 	b.ge	828dc <snprintf+0xbc>  // b.tcont
   828d4:	52801161 	mov	w1, #0x8b                  	// #139
   828d8:	b9000261 	str	w1, [x19]
   828dc:	f94037e1 	ldr	x1, [sp, #104]
   828e0:	3900003f 	strb	wzr, [x1]
   828e4:	f9400bf3 	ldr	x19, [sp, #16]
   828e8:	a8dd7bfd 	ldp	x29, x30, [sp], #464
   828ec:	d65f03c0 	ret
   828f0:	910123e5 	add	x5, sp, #0x48
   828f4:	910683e3 	add	x3, sp, #0x1a0
   828f8:	910743e4 	add	x4, sp, #0x1d0
   828fc:	128004e1 	mov	w1, #0xffffffd8            	// #-40
   82900:	12800fe0 	mov	w0, #0xffffff80            	// #-128
   82904:	a90493e4 	stp	x4, x4, [sp, #72]
   82908:	12800004 	mov	w4, #0xffffffff            	// #-1
   8290c:	f9002fe3 	str	x3, [sp, #88]
   82910:	910083e3 	add	x3, sp, #0x20
   82914:	290c03e1 	stp	w1, w0, [sp, #96]
   82918:	9101a3e1 	add	x1, sp, #0x68
   8291c:	aa1303e0 	mov	x0, x19
   82920:	b90077ff 	str	wzr, [sp, #116]
   82924:	ad4004a0 	ldp	q0, q1, [x5]
   82928:	7900f7e4 	strh	w4, [sp, #122]
   8292c:	b9008bff 	str	wzr, [sp, #136]
   82930:	ad0107e0 	stp	q0, q1, [sp, #32]
   82934:	94000223 	bl	831c0 <_svfprintf_r>
   82938:	3100041f 	cmn	w0, #0x1
   8293c:	5400006a 	b.ge	82948 <snprintf+0x128>  // b.tcont
   82940:	52801161 	mov	w1, #0x8b                  	// #139
   82944:	b9000261 	str	w1, [x19]
   82948:	f9400bf3 	ldr	x19, [sp, #16]
   8294c:	a8dd7bfd 	ldp	x29, x30, [sp], #464
   82950:	d65f03c0 	ret
   82954:	52801161 	mov	w1, #0x8b                  	// #139
   82958:	12800000 	mov	w0, #0xffffffff            	// #-1
   8295c:	b9000261 	str	w1, [x19]
   82960:	17fffffa 	b	82948 <snprintf+0x128>
	...

0000000000082980 <strlen>:
   82980:	92402c04 	and	x4, x0, #0xfff
   82984:	b200c3e8 	mov	x8, #0x101010101010101     	// #72340172838076673
   82988:	f13fc09f 	cmp	x4, #0xff0
   8298c:	5400082c 	b.gt	82a90 <strlen+0x110>
   82990:	a9400c02 	ldp	x2, x3, [x0]
   82994:	cb080044 	sub	x4, x2, x8
   82998:	b200d845 	orr	x5, x2, #0x7f7f7f7f7f7f7f7f
   8299c:	cb080066 	sub	x6, x3, x8
   829a0:	b200d867 	orr	x7, x3, #0x7f7f7f7f7f7f7f7f
   829a4:	ea250084 	bics	x4, x4, x5
   829a8:	8a2700c5 	bic	x5, x6, x7
   829ac:	fa4008a0 	ccmp	x5, #0x0, #0x0, eq	// eq = none
   829b0:	54000100 	b.eq	829d0 <strlen+0x50>  // b.none
   829b4:	9a853084 	csel	x4, x4, x5, cc	// cc = lo, ul, last
   829b8:	d2800100 	mov	x0, #0x8                   	// #8
   829bc:	dac00c84 	rev	x4, x4
   829c0:	dac01084 	clz	x4, x4
   829c4:	9a8033e0 	csel	x0, xzr, x0, cc	// cc = lo, ul, last
   829c8:	8b440c00 	add	x0, x0, x4, lsr #3
   829cc:	d65f03c0 	ret
   829d0:	927cec01 	and	x1, x0, #0xfffffffffffffff0
   829d4:	d1004021 	sub	x1, x1, #0x10
   829d8:	a9c20c22 	ldp	x2, x3, [x1, #32]!
   829dc:	cb080044 	sub	x4, x2, x8
   829e0:	cb080066 	sub	x6, x3, x8
   829e4:	aa060085 	orr	x5, x4, x6
   829e8:	ea081cbf 	tst	x5, x8, lsl #7
   829ec:	54000101 	b.ne	82a0c <strlen+0x8c>  // b.any
   829f0:	a9410c22 	ldp	x2, x3, [x1, #16]
   829f4:	cb080044 	sub	x4, x2, x8
   829f8:	cb080066 	sub	x6, x3, x8
   829fc:	aa060085 	orr	x5, x4, x6
   82a00:	ea081cbf 	tst	x5, x8, lsl #7
   82a04:	54fffea0 	b.eq	829d8 <strlen+0x58>  // b.none
   82a08:	91004021 	add	x1, x1, #0x10
   82a0c:	b200d845 	orr	x5, x2, #0x7f7f7f7f7f7f7f7f
   82a10:	b200d867 	orr	x7, x3, #0x7f7f7f7f7f7f7f7f
   82a14:	ea250084 	bics	x4, x4, x5
   82a18:	8a2700c5 	bic	x5, x6, x7
   82a1c:	fa4008a0 	ccmp	x5, #0x0, #0x0, eq	// eq = none
   82a20:	54000120 	b.eq	82a44 <strlen+0xc4>  // b.none
   82a24:	9a853084 	csel	x4, x4, x5, cc	// cc = lo, ul, last
   82a28:	cb000020 	sub	x0, x1, x0
   82a2c:	dac00c84 	rev	x4, x4
   82a30:	91002005 	add	x5, x0, #0x8
   82a34:	dac01084 	clz	x4, x4
   82a38:	9a853000 	csel	x0, x0, x5, cc	// cc = lo, ul, last
   82a3c:	8b440c00 	add	x0, x0, x4, lsr #3
   82a40:	d65f03c0 	ret
   82a44:	a9c10c22 	ldp	x2, x3, [x1, #16]!
   82a48:	cb080044 	sub	x4, x2, x8
   82a4c:	b200d845 	orr	x5, x2, #0x7f7f7f7f7f7f7f7f
   82a50:	cb080066 	sub	x6, x3, x8
   82a54:	b200d867 	orr	x7, x3, #0x7f7f7f7f7f7f7f7f
   82a58:	ea250084 	bics	x4, x4, x5
   82a5c:	8a2700c5 	bic	x5, x6, x7
   82a60:	fa4008a0 	ccmp	x5, #0x0, #0x0, eq	// eq = none
   82a64:	54fffe01 	b.ne	82a24 <strlen+0xa4>  // b.any
   82a68:	a9c10c22 	ldp	x2, x3, [x1, #16]!
   82a6c:	cb080044 	sub	x4, x2, x8
   82a70:	b200d845 	orr	x5, x2, #0x7f7f7f7f7f7f7f7f
   82a74:	cb080066 	sub	x6, x3, x8
   82a78:	b200d867 	orr	x7, x3, #0x7f7f7f7f7f7f7f7f
   82a7c:	ea250084 	bics	x4, x4, x5
   82a80:	8a2700c5 	bic	x5, x6, x7
   82a84:	fa4008a0 	ccmp	x5, #0x0, #0x0, eq	// eq = none
   82a88:	54fffde0 	b.eq	82a44 <strlen+0xc4>  // b.none
   82a8c:	17ffffe6 	b	82a24 <strlen+0xa4>
   82a90:	927cec01 	and	x1, x0, #0xfffffffffffffff0
   82a94:	a9400c22 	ldp	x2, x3, [x1]
   82a98:	d37df004 	lsl	x4, x0, #3
   82a9c:	92800007 	mov	x7, #0xffffffffffffffff    	// #-1
   82aa0:	9ac420e4 	lsl	x4, x7, x4
   82aa4:	b201c084 	orr	x4, x4, #0x8080808080808080
   82aa8:	aa240042 	orn	x2, x2, x4
   82aac:	aa240065 	orn	x5, x3, x4
   82ab0:	f27d001f 	tst	x0, #0x8
   82ab4:	9a870042 	csel	x2, x2, x7, eq	// eq = none
   82ab8:	9a850063 	csel	x3, x3, x5, eq	// eq = none
   82abc:	17ffffc8 	b	829dc <strlen+0x5c>

0000000000082ac0 <__sread>:
   82ac0:	a9be7bfd 	stp	x29, x30, [sp, #-32]!
   82ac4:	93407c63 	sxtw	x3, w3
   82ac8:	910003fd 	mov	x29, sp
   82acc:	f9000bf3 	str	x19, [sp, #16]
   82ad0:	aa0103f3 	mov	x19, x1
   82ad4:	79c02421 	ldrsh	w1, [x1, #18]
   82ad8:	94003552 	bl	90020 <_read_r>
   82adc:	b7f800e0 	tbnz	x0, #63, 82af8 <__sread+0x38>
   82ae0:	f9404a61 	ldr	x1, [x19, #144]
   82ae4:	8b000021 	add	x1, x1, x0
   82ae8:	f9004a61 	str	x1, [x19, #144]
   82aec:	f9400bf3 	ldr	x19, [sp, #16]
   82af0:	a8c27bfd 	ldp	x29, x30, [sp], #32
   82af4:	d65f03c0 	ret
   82af8:	79402261 	ldrh	w1, [x19, #16]
   82afc:	12137821 	and	w1, w1, #0xffffefff
   82b00:	79002261 	strh	w1, [x19, #16]
   82b04:	f9400bf3 	ldr	x19, [sp, #16]
   82b08:	a8c27bfd 	ldp	x29, x30, [sp], #32
   82b0c:	d65f03c0 	ret

0000000000082b10 <__seofread>:
   82b10:	52800000 	mov	w0, #0x0                   	// #0
   82b14:	d65f03c0 	ret
	...

0000000000082b20 <__swrite>:
   82b20:	a9bd7bfd 	stp	x29, x30, [sp, #-48]!
   82b24:	910003fd 	mov	x29, sp
   82b28:	79c02024 	ldrsh	w4, [x1, #16]
   82b2c:	a90153f3 	stp	x19, x20, [sp, #16]
   82b30:	aa0103f3 	mov	x19, x1
   82b34:	aa0003f4 	mov	x20, x0
   82b38:	a9025bf5 	stp	x21, x22, [sp, #32]
   82b3c:	aa0203f5 	mov	x21, x2
   82b40:	2a0303f6 	mov	w22, w3
   82b44:	37400184 	tbnz	w4, #8, 82b74 <__swrite+0x54>
   82b48:	79c02661 	ldrsh	w1, [x19, #18]
   82b4c:	12137884 	and	w4, w4, #0xffffefff
   82b50:	79002264 	strh	w4, [x19, #16]
   82b54:	93407ec3 	sxtw	x3, w22
   82b58:	aa1503e2 	mov	x2, x21
   82b5c:	aa1403e0 	mov	x0, x20
   82b60:	94000158 	bl	830c0 <_write_r>
   82b64:	a94153f3 	ldp	x19, x20, [sp, #16]
   82b68:	a9425bf5 	ldp	x21, x22, [sp, #32]
   82b6c:	a8c37bfd 	ldp	x29, x30, [sp], #48
   82b70:	d65f03c0 	ret
   82b74:	79c02421 	ldrsh	w1, [x1, #18]
   82b78:	52800043 	mov	w3, #0x2                   	// #2
   82b7c:	d2800002 	mov	x2, #0x0                   	// #0
   82b80:	94003510 	bl	8ffc0 <_lseek_r>
   82b84:	79c02264 	ldrsh	w4, [x19, #16]
   82b88:	17fffff0 	b	82b48 <__swrite+0x28>
   82b8c:	00000000 	udf	#0

0000000000082b90 <__sseek>:
   82b90:	a9be7bfd 	stp	x29, x30, [sp, #-32]!
   82b94:	910003fd 	mov	x29, sp
   82b98:	f9000bf3 	str	x19, [sp, #16]
   82b9c:	aa0103f3 	mov	x19, x1
   82ba0:	79c02421 	ldrsh	w1, [x1, #18]
   82ba4:	94003507 	bl	8ffc0 <_lseek_r>
   82ba8:	79c02261 	ldrsh	w1, [x19, #16]
   82bac:	b100041f 	cmn	x0, #0x1
   82bb0:	540000e0 	b.eq	82bcc <__sseek+0x3c>  // b.none
   82bb4:	32140021 	orr	w1, w1, #0x1000
   82bb8:	79002261 	strh	w1, [x19, #16]
   82bbc:	f9004a60 	str	x0, [x19, #144]
   82bc0:	f9400bf3 	ldr	x19, [sp, #16]
   82bc4:	a8c27bfd 	ldp	x29, x30, [sp], #32
   82bc8:	d65f03c0 	ret
   82bcc:	12137821 	and	w1, w1, #0xffffefff
   82bd0:	79002261 	strh	w1, [x19, #16]
   82bd4:	f9400bf3 	ldr	x19, [sp, #16]
   82bd8:	a8c27bfd 	ldp	x29, x30, [sp], #32
   82bdc:	d65f03c0 	ret

0000000000082be0 <__sclose>:
   82be0:	79c02421 	ldrsh	w1, [x1, #18]
   82be4:	14002fd7 	b	8eb40 <_close_r>
	...

0000000000082bf0 <__sfvwrite_r>:
   82bf0:	a9ba7bfd 	stp	x29, x30, [sp, #-96]!
   82bf4:	910003fd 	mov	x29, sp
   82bf8:	a9025bf5 	stp	x21, x22, [sp, #32]
   82bfc:	aa0003f5 	mov	x21, x0
   82c00:	f9400840 	ldr	x0, [x2, #16]
   82c04:	b4000ac0 	cbz	x0, 82d5c <__sfvwrite_r+0x16c>
   82c08:	79c02025 	ldrsh	w5, [x1, #16]
   82c0c:	a90153f3 	stp	x19, x20, [sp, #16]
   82c10:	aa0103f3 	mov	x19, x1
   82c14:	a90573fb 	stp	x27, x28, [sp, #80]
   82c18:	aa0203fb 	mov	x27, x2
   82c1c:	36180a85 	tbz	w5, #3, 82d6c <__sfvwrite_r+0x17c>
   82c20:	f9400c20 	ldr	x0, [x1, #24]
   82c24:	b4000a40 	cbz	x0, 82d6c <__sfvwrite_r+0x17c>
   82c28:	a90363f7 	stp	x23, x24, [sp, #48]
   82c2c:	f9400374 	ldr	x20, [x27]
   82c30:	360803e5 	tbz	w5, #1, 82cac <__sfvwrite_r+0xbc>
   82c34:	f9401a61 	ldr	x1, [x19, #48]
   82c38:	d2800017 	mov	x23, #0x0                   	// #0
   82c3c:	f9402264 	ldr	x4, [x19, #64]
   82c40:	d2800016 	mov	x22, #0x0                   	// #0
   82c44:	b27653f8 	mov	x24, #0x7ffffc00            	// #2147482624
   82c48:	eb1802df 	cmp	x22, x24
   82c4c:	aa1703e2 	mov	x2, x23
   82c50:	9a9892c3 	csel	x3, x22, x24, ls	// ls = plast
   82c54:	aa1503e0 	mov	x0, x21
   82c58:	b4000256 	cbz	x22, 82ca0 <__sfvwrite_r+0xb0>
   82c5c:	d63f0080 	blr	x4
   82c60:	7100001f 	cmp	w0, #0x0
   82c64:	5400216d 	b.le	83090 <__sfvwrite_r+0x4a0>
   82c68:	f9400b61 	ldr	x1, [x27, #16]
   82c6c:	93407c00 	sxtw	x0, w0
   82c70:	8b0002f7 	add	x23, x23, x0
   82c74:	cb0002d6 	sub	x22, x22, x0
   82c78:	cb000020 	sub	x0, x1, x0
   82c7c:	f9000b60 	str	x0, [x27, #16]
   82c80:	b40020c0 	cbz	x0, 83098 <__sfvwrite_r+0x4a8>
   82c84:	eb1802df 	cmp	x22, x24
   82c88:	aa1703e2 	mov	x2, x23
   82c8c:	f9401a61 	ldr	x1, [x19, #48]
   82c90:	9a9892c3 	csel	x3, x22, x24, ls	// ls = plast
   82c94:	f9402264 	ldr	x4, [x19, #64]
   82c98:	aa1503e0 	mov	x0, x21
   82c9c:	b5fffe16 	cbnz	x22, 82c5c <__sfvwrite_r+0x6c>
   82ca0:	a9405a97 	ldp	x23, x22, [x20]
   82ca4:	91004294 	add	x20, x20, #0x10
   82ca8:	17ffffe8 	b	82c48 <__sfvwrite_r+0x58>
   82cac:	a9046bf9 	stp	x25, x26, [sp, #64]
   82cb0:	36000a65 	tbz	w5, #0, 82dfc <__sfvwrite_r+0x20c>
   82cb4:	52800018 	mov	w24, #0x0                   	// #0
   82cb8:	52800000 	mov	w0, #0x0                   	// #0
   82cbc:	d280001a 	mov	x26, #0x0                   	// #0
   82cc0:	d2800019 	mov	x25, #0x0                   	// #0
   82cc4:	d503201f 	nop
   82cc8:	b40007f9 	cbz	x25, 82dc4 <__sfvwrite_r+0x1d4>
   82ccc:	34000860 	cbz	w0, 82dd8 <__sfvwrite_r+0x1e8>
   82cd0:	f9400260 	ldr	x0, [x19]
   82cd4:	93407f17 	sxtw	x23, w24
   82cd8:	f9400e61 	ldr	x1, [x19, #24]
   82cdc:	eb1902ff 	cmp	x23, x25
   82ce0:	b9400e76 	ldr	w22, [x19, #12]
   82ce4:	9a9992f7 	csel	x23, x23, x25, ls	// ls = plast
   82ce8:	b9402263 	ldr	w3, [x19, #32]
   82cec:	eb01001f 	cmp	x0, x1
   82cf0:	0b160076 	add	w22, w3, w22
   82cf4:	7a5682e4 	ccmp	w23, w22, #0x4, hi	// hi = pmore
   82cf8:	540019ac 	b.gt	8302c <__sfvwrite_r+0x43c>
   82cfc:	6b17007f 	cmp	w3, w23
   82d00:	540017ec 	b.gt	82ffc <__sfvwrite_r+0x40c>
   82d04:	f9401a61 	ldr	x1, [x19, #48]
   82d08:	aa1a03e2 	mov	x2, x26
   82d0c:	f9402264 	ldr	x4, [x19, #64]
   82d10:	aa1503e0 	mov	x0, x21
   82d14:	d63f0080 	blr	x4
   82d18:	2a0003f6 	mov	w22, w0
   82d1c:	7100001f 	cmp	w0, #0x0
   82d20:	540003cd 	b.le	82d98 <__sfvwrite_r+0x1a8>
   82d24:	6b160318 	subs	w24, w24, w22
   82d28:	52800020 	mov	w0, #0x1                   	// #1
   82d2c:	540002e0 	b.eq	82d88 <__sfvwrite_r+0x198>  // b.none
   82d30:	f9400b61 	ldr	x1, [x27, #16]
   82d34:	93407ed6 	sxtw	x22, w22
   82d38:	8b16035a 	add	x26, x26, x22
   82d3c:	cb160339 	sub	x25, x25, x22
   82d40:	cb160021 	sub	x1, x1, x22
   82d44:	f9000b61 	str	x1, [x27, #16]
   82d48:	b5fffc01 	cbnz	x1, 82cc8 <__sfvwrite_r+0xd8>
   82d4c:	a94153f3 	ldp	x19, x20, [sp, #16]
   82d50:	a94363f7 	ldp	x23, x24, [sp, #48]
   82d54:	a9446bf9 	ldp	x25, x26, [sp, #64]
   82d58:	a94573fb 	ldp	x27, x28, [sp, #80]
   82d5c:	52800000 	mov	w0, #0x0                   	// #0
   82d60:	a9425bf5 	ldp	x21, x22, [sp, #32]
   82d64:	a8c67bfd 	ldp	x29, x30, [sp], #96
   82d68:	d65f03c0 	ret
   82d6c:	aa1303e1 	mov	x1, x19
   82d70:	aa1503e0 	mov	x0, x21
   82d74:	9400284b 	bl	8cea0 <__swsetup_r>
   82d78:	350001a0 	cbnz	w0, 82dac <__sfvwrite_r+0x1bc>
   82d7c:	79c02265 	ldrsh	w5, [x19, #16]
   82d80:	a90363f7 	stp	x23, x24, [sp, #48]
   82d84:	17ffffaa 	b	82c2c <__sfvwrite_r+0x3c>
   82d88:	aa1303e1 	mov	x1, x19
   82d8c:	aa1503e0 	mov	x0, x21
   82d90:	94003030 	bl	8ee50 <_fflush_r>
   82d94:	34fffce0 	cbz	w0, 82d30 <__sfvwrite_r+0x140>
   82d98:	a9446bf9 	ldp	x25, x26, [sp, #64]
   82d9c:	79c02260 	ldrsh	w0, [x19, #16]
   82da0:	a94363f7 	ldp	x23, x24, [sp, #48]
   82da4:	321a0000 	orr	w0, w0, #0x40
   82da8:	79002260 	strh	w0, [x19, #16]
   82dac:	a94153f3 	ldp	x19, x20, [sp, #16]
   82db0:	12800000 	mov	w0, #0xffffffff            	// #-1
   82db4:	a9425bf5 	ldp	x21, x22, [sp, #32]
   82db8:	a94573fb 	ldp	x27, x28, [sp, #80]
   82dbc:	a8c67bfd 	ldp	x29, x30, [sp], #96
   82dc0:	d65f03c0 	ret
   82dc4:	f9400699 	ldr	x25, [x20, #8]
   82dc8:	aa1403e0 	mov	x0, x20
   82dcc:	91004294 	add	x20, x20, #0x10
   82dd0:	b4ffffb9 	cbz	x25, 82dc4 <__sfvwrite_r+0x1d4>
   82dd4:	f940001a 	ldr	x26, [x0]
   82dd8:	aa1903e2 	mov	x2, x25
   82ddc:	aa1a03e0 	mov	x0, x26
   82de0:	52800141 	mov	w1, #0xa                   	// #10
   82de4:	940027f7 	bl	8cdc0 <memchr>
   82de8:	91000418 	add	x24, x0, #0x1
   82dec:	f100001f 	cmp	x0, #0x0
   82df0:	cb1a0318 	sub	x24, x24, x26
   82df4:	1a991718 	csinc	w24, w24, w25, ne	// ne = any
   82df8:	17ffffb6 	b	82cd0 <__sfvwrite_r+0xe0>
   82dfc:	f9400264 	ldr	x4, [x19]
   82e00:	d280001c 	mov	x28, #0x0                   	// #0
   82e04:	b9400e61 	ldr	w1, [x19, #12]
   82e08:	d280001a 	mov	x26, #0x0                   	// #0
   82e0c:	d503201f 	nop
   82e10:	aa0403e0 	mov	x0, x4
   82e14:	2a0103f8 	mov	w24, w1
   82e18:	b40003fa 	cbz	x26, 82e94 <__sfvwrite_r+0x2a4>
   82e1c:	36480425 	tbz	w5, #9, 82ea0 <__sfvwrite_r+0x2b0>
   82e20:	93407c37 	sxtw	x23, w1
   82e24:	eb1a02ff 	cmp	x23, x26
   82e28:	540008c9 	b.ls	82f40 <__sfvwrite_r+0x350>  // b.plast
   82e2c:	93407f41 	sxtw	x1, w26
   82e30:	aa0103f9 	mov	x25, x1
   82e34:	aa0403e0 	mov	x0, x4
   82e38:	aa0103f7 	mov	x23, x1
   82e3c:	2a1a03f8 	mov	w24, w26
   82e40:	aa1c03e1 	mov	x1, x28
   82e44:	aa1703e2 	mov	x2, x23
   82e48:	9400293e 	bl	8d340 <memmove>
   82e4c:	f9400264 	ldr	x4, [x19]
   82e50:	b9400e61 	ldr	w1, [x19, #12]
   82e54:	8b170084 	add	x4, x4, x23
   82e58:	f9000264 	str	x4, [x19]
   82e5c:	4b180021 	sub	w1, w1, w24
   82e60:	b9000e61 	str	w1, [x19, #12]
   82e64:	f9400b60 	ldr	x0, [x27, #16]
   82e68:	8b19039c 	add	x28, x28, x25
   82e6c:	cb19035a 	sub	x26, x26, x25
   82e70:	cb190000 	sub	x0, x0, x25
   82e74:	f9000b60 	str	x0, [x27, #16]
   82e78:	b4fff6a0 	cbz	x0, 82d4c <__sfvwrite_r+0x15c>
   82e7c:	f9400264 	ldr	x4, [x19]
   82e80:	b9400e61 	ldr	w1, [x19, #12]
   82e84:	79c02265 	ldrsh	w5, [x19, #16]
   82e88:	aa0403e0 	mov	x0, x4
   82e8c:	2a0103f8 	mov	w24, w1
   82e90:	b5fffc7a 	cbnz	x26, 82e1c <__sfvwrite_r+0x22c>
   82e94:	a9406a9c 	ldp	x28, x26, [x20]
   82e98:	91004294 	add	x20, x20, #0x10
   82e9c:	17ffffdd 	b	82e10 <__sfvwrite_r+0x220>
   82ea0:	f9400e60 	ldr	x0, [x19, #24]
   82ea4:	eb04001f 	cmp	x0, x4
   82ea8:	54000243 	b.cc	82ef0 <__sfvwrite_r+0x300>  // b.lo, b.ul, b.last
   82eac:	b9402265 	ldr	w5, [x19, #32]
   82eb0:	eb25c35f 	cmp	x26, w5, sxtw
   82eb4:	540001e3 	b.cc	82ef0 <__sfvwrite_r+0x300>  // b.lo, b.ul, b.last
   82eb8:	b2407be0 	mov	x0, #0x7fffffff            	// #2147483647
   82ebc:	eb00035f 	cmp	x26, x0
   82ec0:	9a809343 	csel	x3, x26, x0, ls	// ls = plast
   82ec4:	aa1c03e2 	mov	x2, x28
   82ec8:	f9401a61 	ldr	x1, [x19, #48]
   82ecc:	aa1503e0 	mov	x0, x21
   82ed0:	1ac50c63 	sdiv	w3, w3, w5
   82ed4:	f9402264 	ldr	x4, [x19, #64]
   82ed8:	1b057c63 	mul	w3, w3, w5
   82edc:	d63f0080 	blr	x4
   82ee0:	7100001f 	cmp	w0, #0x0
   82ee4:	54fff5ad 	b.le	82d98 <__sfvwrite_r+0x1a8>
   82ee8:	93407c19 	sxtw	x25, w0
   82eec:	17ffffde 	b	82e64 <__sfvwrite_r+0x274>
   82ef0:	93407c23 	sxtw	x3, w1
   82ef4:	aa0403e0 	mov	x0, x4
   82ef8:	eb1a007f 	cmp	x3, x26
   82efc:	aa1c03e1 	mov	x1, x28
   82f00:	9a9a9078 	csel	x24, x3, x26, ls	// ls = plast
   82f04:	93407f19 	sxtw	x25, w24
   82f08:	aa1903e2 	mov	x2, x25
   82f0c:	9400290d 	bl	8d340 <memmove>
   82f10:	f9400264 	ldr	x4, [x19]
   82f14:	b9400e61 	ldr	w1, [x19, #12]
   82f18:	8b190084 	add	x4, x4, x25
   82f1c:	f9000264 	str	x4, [x19]
   82f20:	4b180021 	sub	w1, w1, w24
   82f24:	b9000e61 	str	w1, [x19, #12]
   82f28:	35fff9e1 	cbnz	w1, 82e64 <__sfvwrite_r+0x274>
   82f2c:	aa1303e1 	mov	x1, x19
   82f30:	aa1503e0 	mov	x0, x21
   82f34:	94002fc7 	bl	8ee50 <_fflush_r>
   82f38:	34fff960 	cbz	w0, 82e64 <__sfvwrite_r+0x274>
   82f3c:	17ffff97 	b	82d98 <__sfvwrite_r+0x1a8>
   82f40:	93407f59 	sxtw	x25, w26
   82f44:	52809001 	mov	w1, #0x480                 	// #1152
   82f48:	6a0100bf 	tst	w5, w1
   82f4c:	54fff7a0 	b.eq	82e40 <__sfvwrite_r+0x250>  // b.none
   82f50:	b9402266 	ldr	w6, [x19, #32]
   82f54:	f9400e61 	ldr	x1, [x19, #24]
   82f58:	0b0604c6 	add	w6, w6, w6, lsl #1
   82f5c:	cb010099 	sub	x25, x4, x1
   82f60:	0b467cc6 	add	w6, w6, w6, lsr #31
   82f64:	93407f36 	sxtw	x22, w25
   82f68:	13017cd7 	asr	w23, w6, #1
   82f6c:	910006c0 	add	x0, x22, #0x1
   82f70:	8b1a0000 	add	x0, x0, x26
   82f74:	93407ee2 	sxtw	x2, w23
   82f78:	eb00005f 	cmp	x2, x0
   82f7c:	54000082 	b.cs	82f8c <__sfvwrite_r+0x39c>  // b.hs, b.nlast
   82f80:	11000726 	add	w6, w25, #0x1
   82f84:	0b1a00d7 	add	w23, w6, w26
   82f88:	93407ee2 	sxtw	x2, w23
   82f8c:	36500685 	tbz	w5, #10, 8305c <__sfvwrite_r+0x46c>
   82f90:	aa0203e1 	mov	x1, x2
   82f94:	aa1503e0 	mov	x0, x21
   82f98:	9400217a 	bl	8b580 <_malloc_r>
   82f9c:	aa0003f8 	mov	x24, x0
   82fa0:	b4000840 	cbz	x0, 830a8 <__sfvwrite_r+0x4b8>
   82fa4:	f9400e61 	ldr	x1, [x19, #24]
   82fa8:	aa1603e2 	mov	x2, x22
   82fac:	94002885 	bl	8d1c0 <memcpy>
   82fb0:	79402260 	ldrh	w0, [x19, #16]
   82fb4:	12809001 	mov	w1, #0xfffffb7f            	// #-1153
   82fb8:	0a010000 	and	w0, w0, w1
   82fbc:	32190000 	orr	w0, w0, #0x80
   82fc0:	79002260 	strh	w0, [x19, #16]
   82fc4:	8b160300 	add	x0, x24, x22
   82fc8:	4b1902e4 	sub	w4, w23, w25
   82fcc:	93407f59 	sxtw	x25, w26
   82fd0:	f9000260 	str	x0, [x19]
   82fd4:	b9000e64 	str	w4, [x19, #12]
   82fd8:	aa1903e1 	mov	x1, x25
   82fdc:	f9000e78 	str	x24, [x19, #24]
   82fe0:	aa0003e4 	mov	x4, x0
   82fe4:	b9002277 	str	w23, [x19, #32]
   82fe8:	2a1a03f8 	mov	w24, w26
   82fec:	eb1a033f 	cmp	x25, x26
   82ff0:	54fff208 	b.hi	82e30 <__sfvwrite_r+0x240>  // b.pmore
   82ff4:	aa1903f7 	mov	x23, x25
   82ff8:	17ffff92 	b	82e40 <__sfvwrite_r+0x250>
   82ffc:	93407efc 	sxtw	x28, w23
   83000:	aa1a03e1 	mov	x1, x26
   83004:	aa1c03e2 	mov	x2, x28
   83008:	940028ce 	bl	8d340 <memmove>
   8300c:	f9400260 	ldr	x0, [x19]
   83010:	2a1703f6 	mov	w22, w23
   83014:	b9400e61 	ldr	w1, [x19, #12]
   83018:	8b1c0000 	add	x0, x0, x28
   8301c:	f9000260 	str	x0, [x19]
   83020:	4b170021 	sub	w1, w1, w23
   83024:	b9000e61 	str	w1, [x19, #12]
   83028:	17ffff3f 	b	82d24 <__sfvwrite_r+0x134>
   8302c:	93407ed7 	sxtw	x23, w22
   83030:	aa1a03e1 	mov	x1, x26
   83034:	aa1703e2 	mov	x2, x23
   83038:	940028c2 	bl	8d340 <memmove>
   8303c:	f9400262 	ldr	x2, [x19]
   83040:	aa1303e1 	mov	x1, x19
   83044:	aa1503e0 	mov	x0, x21
   83048:	8b170042 	add	x2, x2, x23
   8304c:	f9000262 	str	x2, [x19]
   83050:	94002f80 	bl	8ee50 <_fflush_r>
   83054:	34ffe680 	cbz	w0, 82d24 <__sfvwrite_r+0x134>
   83058:	17ffff50 	b	82d98 <__sfvwrite_r+0x1a8>
   8305c:	aa1503e0 	mov	x0, x21
   83060:	94003034 	bl	8f130 <_realloc_r>
   83064:	aa0003f8 	mov	x24, x0
   83068:	b5fffae0 	cbnz	x0, 82fc4 <__sfvwrite_r+0x3d4>
   8306c:	f9400e61 	ldr	x1, [x19, #24]
   83070:	aa1503e0 	mov	x0, x21
   83074:	940031d3 	bl	8f7c0 <_free_r>
   83078:	79c02260 	ldrsh	w0, [x19, #16]
   8307c:	52800181 	mov	w1, #0xc                   	// #12
   83080:	a9446bf9 	ldp	x25, x26, [sp, #64]
   83084:	12187800 	and	w0, w0, #0xffffff7f
   83088:	b90002a1 	str	w1, [x21]
   8308c:	17ffff45 	b	82da0 <__sfvwrite_r+0x1b0>
   83090:	79c02260 	ldrsh	w0, [x19, #16]
   83094:	17ffff43 	b	82da0 <__sfvwrite_r+0x1b0>
   83098:	a94153f3 	ldp	x19, x20, [sp, #16]
   8309c:	a94363f7 	ldp	x23, x24, [sp, #48]
   830a0:	a94573fb 	ldp	x27, x28, [sp, #80]
   830a4:	17ffff2e 	b	82d5c <__sfvwrite_r+0x16c>
   830a8:	a9446bf9 	ldp	x25, x26, [sp, #64]
   830ac:	52800181 	mov	w1, #0xc                   	// #12
   830b0:	79c02260 	ldrsh	w0, [x19, #16]
   830b4:	b90002a1 	str	w1, [x21]
   830b8:	17ffff3a 	b	82da0 <__sfvwrite_r+0x1b0>
   830bc:	00000000 	udf	#0

00000000000830c0 <_write_r>:
   830c0:	a9be7bfd 	stp	x29, x30, [sp, #-32]!
   830c4:	910003fd 	mov	x29, sp
   830c8:	a90153f3 	stp	x19, x20, [sp, #16]
   830cc:	90001414 	adrp	x20, 303000 <saved_categories.0+0xa0>
   830d0:	aa0003f3 	mov	x19, x0
   830d4:	2a0103e0 	mov	w0, w1
   830d8:	aa0203e1 	mov	x1, x2
   830dc:	b9012a9f 	str	wzr, [x20, #296]
   830e0:	aa0303e2 	mov	x2, x3
   830e4:	97fff733 	bl	80db0 <_write>
   830e8:	93407c01 	sxtw	x1, w0
   830ec:	3100041f 	cmn	w0, #0x1
   830f0:	540000a0 	b.eq	83104 <_write_r+0x44>  // b.none
   830f4:	a94153f3 	ldp	x19, x20, [sp, #16]
   830f8:	aa0103e0 	mov	x0, x1
   830fc:	a8c27bfd 	ldp	x29, x30, [sp], #32
   83100:	d65f03c0 	ret
   83104:	b9412a80 	ldr	w0, [x20, #296]
   83108:	34ffff60 	cbz	w0, 830f4 <_write_r+0x34>
   8310c:	b9000260 	str	w0, [x19]
   83110:	aa0103e0 	mov	x0, x1
   83114:	a94153f3 	ldp	x19, x20, [sp, #16]
   83118:	a8c27bfd 	ldp	x29, x30, [sp], #32
   8311c:	d65f03c0 	ret

0000000000083120 <_fwalk_sglue>:
   83120:	a9bb7bfd 	stp	x29, x30, [sp, #-80]!
   83124:	910003fd 	mov	x29, sp
   83128:	a9025bf5 	stp	x21, x22, [sp, #32]
   8312c:	aa0203f6 	mov	x22, x2
   83130:	52800015 	mov	w21, #0x0                   	// #0
   83134:	a90363f7 	stp	x23, x24, [sp, #48]
   83138:	aa0003f7 	mov	x23, x0
   8313c:	aa0103f8 	mov	x24, x1
   83140:	a90153f3 	stp	x19, x20, [sp, #16]
   83144:	f90023f9 	str	x25, [sp, #64]
   83148:	52801719 	mov	w25, #0xb8                  	// #184
   8314c:	d503201f 	nop
   83150:	b9400ad4 	ldr	w20, [x22, #8]
   83154:	f9400ad3 	ldr	x19, [x22, #16]
   83158:	7100029f 	cmp	w20, #0x0
   8315c:	5400020d 	b.le	8319c <_fwalk_sglue+0x7c>
   83160:	9bb94e94 	umaddl	x20, w20, w25, x19
   83164:	d503201f 	nop
   83168:	79402263 	ldrh	w3, [x19, #16]
   8316c:	7100047f 	cmp	w3, #0x1
   83170:	54000109 	b.ls	83190 <_fwalk_sglue+0x70>  // b.plast
   83174:	79c02663 	ldrsh	w3, [x19, #18]
   83178:	aa1303e1 	mov	x1, x19
   8317c:	aa1703e0 	mov	x0, x23
   83180:	3100047f 	cmn	w3, #0x1
   83184:	54000060 	b.eq	83190 <_fwalk_sglue+0x70>  // b.none
   83188:	d63f0300 	blr	x24
   8318c:	2a0002b5 	orr	w21, w21, w0
   83190:	9102e273 	add	x19, x19, #0xb8
   83194:	eb13029f 	cmp	x20, x19
   83198:	54fffe81 	b.ne	83168 <_fwalk_sglue+0x48>  // b.any
   8319c:	f94002d6 	ldr	x22, [x22]
   831a0:	b5fffd96 	cbnz	x22, 83150 <_fwalk_sglue+0x30>
   831a4:	a94153f3 	ldp	x19, x20, [sp, #16]
   831a8:	2a1503e0 	mov	w0, w21
   831ac:	a9425bf5 	ldp	x21, x22, [sp, #32]
   831b0:	a94363f7 	ldp	x23, x24, [sp, #48]
   831b4:	f94023f9 	ldr	x25, [sp, #64]
   831b8:	a8c57bfd 	ldp	x29, x30, [sp], #80
   831bc:	d65f03c0 	ret

00000000000831c0 <_svfprintf_r>:
   831c0:	d10983ff 	sub	sp, sp, #0x260
   831c4:	a9007bfd 	stp	x29, x30, [sp]
   831c8:	910003fd 	mov	x29, sp
   831cc:	a9025bf5 	stp	x21, x22, [sp, #32]
   831d0:	aa0103f5 	mov	x21, x1
   831d4:	f9400061 	ldr	x1, [x3]
   831d8:	a90787e2 	stp	x2, x1, [sp, #120]
   831dc:	f9400461 	ldr	x1, [x3, #8]
   831e0:	f90057e1 	str	x1, [sp, #168]
   831e4:	f9400861 	ldr	x1, [x3, #16]
   831e8:	f9008be1 	str	x1, [sp, #272]
   831ec:	b9401861 	ldr	w1, [x3, #24]
   831f0:	b9009be1 	str	w1, [sp, #152]
   831f4:	b9401c61 	ldr	w1, [x3, #28]
   831f8:	a90153f3 	stp	x19, x20, [sp, #16]
   831fc:	aa0003f3 	mov	x19, x0
   83200:	b900ffe1 	str	w1, [sp, #252]
   83204:	94002693 	bl	8cc50 <_localeconv_r>
   83208:	f9400000 	ldr	x0, [x0]
   8320c:	f9005fe0 	str	x0, [sp, #184]
   83210:	97fffddc 	bl	82980 <strlen>
   83214:	f9005be0 	str	x0, [sp, #176]
   83218:	d2800102 	mov	x2, #0x8                   	// #8
   8321c:	910523e0 	add	x0, sp, #0x148
   83220:	52800001 	mov	w1, #0x0                   	// #0
   83224:	940028e7 	bl	8d5c0 <memset>
   83228:	794022a0 	ldrh	w0, [x21, #16]
   8322c:	f9403fe9 	ldr	x9, [sp, #120]
   83230:	36380060 	tbz	w0, #7, 8323c <_svfprintf_r+0x7c>
   83234:	f9400ea0 	ldr	x0, [x21, #24]
   83238:	b400af00 	cbz	x0, 84818 <_svfprintf_r+0x1658>
   8323c:	a90363f7 	stp	x23, x24, [sp, #48]
   83240:	a9046bf9 	stp	x25, x26, [sp, #64]
   83244:	a90573fb 	stp	x27, x28, [sp, #80]
   83248:	6d0627e8 	stp	d8, d9, [sp, #96]
   8324c:	910783f6 	add	x22, sp, #0x1e0
   83250:	2f00e408 	movi	d8, #0x0
   83254:	f0000094 	adrp	x20, 96000 <JIS_state_table+0x70>
   83258:	aa1603fc 	mov	x28, x22
   8325c:	91324294 	add	x20, x20, #0xc90
   83260:	aa0903f9 	mov	x25, x9
   83264:	d0000080 	adrp	x0, 95000 <pmu_event_descr+0x60>
   83268:	91189000 	add	x0, x0, #0x624
   8326c:	b9007bff 	str	wzr, [sp, #120]
   83270:	f90047e0 	str	x0, [sp, #136]
   83274:	f90063ff 	str	xzr, [sp, #192]
   83278:	29197fff 	stp	wzr, wzr, [sp, #200]
   8327c:	a90effff 	stp	xzr, xzr, [sp, #232]
   83280:	f90083ff 	str	xzr, [sp, #256]
   83284:	f900b3f6 	str	x22, [sp, #352]
   83288:	b9016bff 	str	wzr, [sp, #360]
   8328c:	f900bbff 	str	xzr, [sp, #368]
   83290:	aa1903fa 	mov	x26, x25
   83294:	d503201f 	nop
   83298:	f9407697 	ldr	x23, [x20, #232]
   8329c:	9400265d 	bl	8cc10 <__locale_mb_cur_max>
   832a0:	910523e4 	add	x4, sp, #0x148
   832a4:	93407c03 	sxtw	x3, w0
   832a8:	aa1a03e2 	mov	x2, x26
   832ac:	9104f3e1 	add	x1, sp, #0x13c
   832b0:	aa1303e0 	mov	x0, x19
   832b4:	d63f02e0 	blr	x23
   832b8:	7100001f 	cmp	w0, #0x0
   832bc:	340001e0 	cbz	w0, 832f8 <_svfprintf_r+0x138>
   832c0:	540000eb 	b.lt	832dc <_svfprintf_r+0x11c>  // b.tstop
   832c4:	b9413fe1 	ldr	w1, [sp, #316]
   832c8:	7100943f 	cmp	w1, #0x25
   832cc:	540033c0 	b.eq	83944 <_svfprintf_r+0x784>  // b.none
   832d0:	93407c00 	sxtw	x0, w0
   832d4:	8b00035a 	add	x26, x26, x0
   832d8:	17fffff0 	b	83298 <_svfprintf_r+0xd8>
   832dc:	910523e0 	add	x0, sp, #0x148
   832e0:	d2800102 	mov	x2, #0x8                   	// #8
   832e4:	52800001 	mov	w1, #0x0                   	// #0
   832e8:	940028b6 	bl	8d5c0 <memset>
   832ec:	d2800020 	mov	x0, #0x1                   	// #1
   832f0:	8b00035a 	add	x26, x26, x0
   832f4:	17ffffe9 	b	83298 <_svfprintf_r+0xd8>
   832f8:	2a0003f7 	mov	w23, w0
   832fc:	cb190340 	sub	x0, x26, x25
   83300:	2a0003fb 	mov	w27, w0
   83304:	3400ee00 	cbz	w0, 850c4 <_svfprintf_r+0x1f04>
   83308:	f940bbe2 	ldr	x2, [sp, #368]
   8330c:	93407f61 	sxtw	x1, w27
   83310:	b9416be0 	ldr	w0, [sp, #360]
   83314:	8b010042 	add	x2, x2, x1
   83318:	a9000799 	stp	x25, x1, [x28]
   8331c:	11000400 	add	w0, w0, #0x1
   83320:	b9016be0 	str	w0, [sp, #360]
   83324:	9100439c 	add	x28, x28, #0x10
   83328:	f900bbe2 	str	x2, [sp, #368]
   8332c:	71001c1f 	cmp	w0, #0x7
   83330:	5400458c 	b.gt	83be0 <_svfprintf_r+0xa20>
   83334:	b9407be0 	ldr	w0, [sp, #120]
   83338:	0b1b0000 	add	w0, w0, w27
   8333c:	b9007be0 	str	w0, [sp, #120]
   83340:	3400ec37 	cbz	w23, 850c4 <_svfprintf_r+0x1f04>
   83344:	39400748 	ldrb	w8, [x26, #1]
   83348:	91000759 	add	x25, x26, #0x1
   8334c:	12800007 	mov	w7, #0xffffffff            	// #-1
   83350:	5280000b 	mov	w11, #0x0                   	// #0
   83354:	52800009 	mov	w9, #0x0                   	// #0
   83358:	2a0b03f8 	mov	w24, w11
   8335c:	2a0903f7 	mov	w23, w9
   83360:	2a0703fa 	mov	w26, w7
   83364:	3904bfff 	strb	wzr, [sp, #303]
   83368:	91000739 	add	x25, x25, #0x1
   8336c:	51008100 	sub	w0, w8, #0x20
   83370:	7101681f 	cmp	w0, #0x5a
   83374:	540000c8 	b.hi	8338c <_svfprintf_r+0x1cc>  // b.pmore
   83378:	f94047e1 	ldr	x1, [sp, #136]
   8337c:	78605820 	ldrh	w0, [x1, w0, uxtw #1]
   83380:	10000061 	adr	x1, 8338c <_svfprintf_r+0x1cc>
   83384:	8b20a820 	add	x0, x1, w0, sxth #2
   83388:	d61f0000 	br	x0
   8338c:	2a1703e9 	mov	w9, w23
   83390:	2a1803eb 	mov	w11, w24
   83394:	3400e988 	cbz	w8, 850c4 <_svfprintf_r+0x1f04>
   83398:	52800023 	mov	w3, #0x1                   	// #1
   8339c:	9105e3f8 	add	x24, sp, #0x178
   833a0:	2a0303fb 	mov	w27, w3
   833a4:	52800001 	mov	w1, #0x0                   	// #0
   833a8:	d2800017 	mov	x23, #0x0                   	// #0
   833ac:	52800007 	mov	w7, #0x0                   	// #0
   833b0:	b90093ff 	str	wzr, [sp, #144]
   833b4:	2913ffff 	stp	wzr, wzr, [sp, #156]
   833b8:	3904bfff 	strb	wzr, [sp, #303]
   833bc:	3905e3e8 	strb	w8, [sp, #376]
   833c0:	721f0132 	ands	w18, w9, #0x2
   833c4:	11000862 	add	w2, w3, #0x2
   833c8:	f940bbe0 	ldr	x0, [sp, #368]
   833cc:	1a831043 	csel	w3, w2, w3, ne	// ne = any
   833d0:	5280108e 	mov	w14, #0x84                  	// #132
   833d4:	6a0e013a 	ands	w26, w9, w14
   833d8:	54000081 	b.ne	833e8 <_svfprintf_r+0x228>  // b.any
   833dc:	4b030164 	sub	w4, w11, w3
   833e0:	7100009f 	cmp	w4, #0x0
   833e4:	54001a6c 	b.gt	83730 <_svfprintf_r+0x570>
   833e8:	340001a1 	cbz	w1, 8341c <_svfprintf_r+0x25c>
   833ec:	b9416be1 	ldr	w1, [sp, #360]
   833f0:	9104bfe2 	add	x2, sp, #0x12f
   833f4:	91000400 	add	x0, x0, #0x1
   833f8:	f9000382 	str	x2, [x28]
   833fc:	11000421 	add	w1, w1, #0x1
   83400:	d2800022 	mov	x2, #0x1                   	// #1
   83404:	f9000782 	str	x2, [x28, #8]
   83408:	9100439c 	add	x28, x28, #0x10
   8340c:	b9016be1 	str	w1, [sp, #360]
   83410:	f900bbe0 	str	x0, [sp, #368]
   83414:	71001c3f 	cmp	w1, #0x7
   83418:	540020ac 	b.gt	8382c <_svfprintf_r+0x66c>
   8341c:	340001b2 	cbz	w18, 83450 <_svfprintf_r+0x290>
   83420:	b9416be1 	ldr	w1, [sp, #360]
   83424:	9104c3e2 	add	x2, sp, #0x130
   83428:	91000800 	add	x0, x0, #0x2
   8342c:	f9000382 	str	x2, [x28]
   83430:	11000421 	add	w1, w1, #0x1
   83434:	d2800042 	mov	x2, #0x2                   	// #2
   83438:	f9000782 	str	x2, [x28, #8]
   8343c:	9100439c 	add	x28, x28, #0x10
   83440:	b9016be1 	str	w1, [sp, #360]
   83444:	f900bbe0 	str	x0, [sp, #368]
   83448:	71001c3f 	cmp	w1, #0x7
   8344c:	54003d8c 	b.gt	83bfc <_svfprintf_r+0xa3c>
   83450:	7102035f 	cmp	w26, #0x80
   83454:	54002820 	b.eq	83958 <_svfprintf_r+0x798>  // b.none
   83458:	4b1b00fa 	sub	w26, w7, w27
   8345c:	7100035f 	cmp	w26, #0x0
   83460:	540004cc 	b.gt	834f8 <_svfprintf_r+0x338>
   83464:	37400de9 	tbnz	w9, #8, 83620 <_svfprintf_r+0x460>
   83468:	b9416be1 	ldr	w1, [sp, #360]
   8346c:	93407f6c 	sxtw	x12, w27
   83470:	8b0c0000 	add	x0, x0, x12
   83474:	a9003398 	stp	x24, x12, [x28]
   83478:	11000421 	add	w1, w1, #0x1
   8347c:	b9016be1 	str	w1, [sp, #360]
   83480:	f900bbe0 	str	x0, [sp, #368]
   83484:	71001c3f 	cmp	w1, #0x7
   83488:	5400240c 	b.gt	83908 <_svfprintf_r+0x748>
   8348c:	9100439c 	add	x28, x28, #0x10
   83490:	36100089 	tbz	w9, #2, 834a0 <_svfprintf_r+0x2e0>
   83494:	4b03017a 	sub	w26, w11, w3
   83498:	7100035f 	cmp	w26, #0x0
   8349c:	54003d4c 	b.gt	83c44 <_svfprintf_r+0xa84>
   834a0:	b9407be1 	ldr	w1, [sp, #120]
   834a4:	6b03017f 	cmp	w11, w3
   834a8:	1a83a163 	csel	w3, w11, w3, ge	// ge = tcont
   834ac:	0b030021 	add	w1, w1, w3
   834b0:	b9007be1 	str	w1, [sp, #120]
   834b4:	b5002f20 	cbnz	x0, 83a98 <_svfprintf_r+0x8d8>
   834b8:	b9016bff 	str	wzr, [sp, #360]
   834bc:	b4000097 	cbz	x23, 834cc <_svfprintf_r+0x30c>
   834c0:	aa1703e1 	mov	x1, x23
   834c4:	aa1303e0 	mov	x0, x19
   834c8:	940030be 	bl	8f7c0 <_free_r>
   834cc:	aa1603fc 	mov	x28, x22
   834d0:	17ffff70 	b	83290 <_svfprintf_r+0xd0>
   834d4:	5100c100 	sub	w0, w8, #0x30
   834d8:	52800018 	mov	w24, #0x0                   	// #0
   834dc:	38401728 	ldrb	w8, [x25], #1
   834e0:	0b180b0b 	add	w11, w24, w24, lsl #2
   834e4:	0b0b0418 	add	w24, w0, w11, lsl #1
   834e8:	5100c100 	sub	w0, w8, #0x30
   834ec:	7100241f 	cmp	w0, #0x9
   834f0:	54ffff69 	b.ls	834dc <_svfprintf_r+0x31c>  // b.plast
   834f4:	17ffff9e 	b	8336c <_svfprintf_r+0x1ac>
   834f8:	d0000084 	adrp	x4, 95000 <pmu_event_descr+0x60>
   834fc:	b9416be1 	ldr	w1, [sp, #360]
   83500:	911b8084 	add	x4, x4, #0x6e0
   83504:	7100435f 	cmp	w26, #0x10
   83508:	5400058d 	b.le	835b8 <_svfprintf_r+0x3f8>
   8350c:	aa1c03e2 	mov	x2, x28
   83510:	d280020d 	mov	x13, #0x10                  	// #16
   83514:	aa1903fc 	mov	x28, x25
   83518:	aa0403f9 	mov	x25, x4
   8351c:	b900d3e8 	str	w8, [sp, #208]
   83520:	f9006ff8 	str	x24, [sp, #216]
   83524:	2a1a03f8 	mov	w24, w26
   83528:	2a0303fa 	mov	w26, w3
   8352c:	b900e3e9 	str	w9, [sp, #224]
   83530:	b900fbeb 	str	w11, [sp, #248]
   83534:	14000004 	b	83544 <_svfprintf_r+0x384>
   83538:	51004318 	sub	w24, w24, #0x10
   8353c:	7100431f 	cmp	w24, #0x10
   83540:	540002ad 	b.le	83594 <_svfprintf_r+0x3d4>
   83544:	91004000 	add	x0, x0, #0x10
   83548:	11000421 	add	w1, w1, #0x1
   8354c:	a9003459 	stp	x25, x13, [x2]
   83550:	91004042 	add	x2, x2, #0x10
   83554:	b9016be1 	str	w1, [sp, #360]
   83558:	f900bbe0 	str	x0, [sp, #368]
   8355c:	71001c3f 	cmp	w1, #0x7
   83560:	54fffecd 	b.le	83538 <_svfprintf_r+0x378>
   83564:	910583e2 	add	x2, sp, #0x160
   83568:	aa1503e1 	mov	x1, x21
   8356c:	aa1303e0 	mov	x0, x19
   83570:	94003564 	bl	90b00 <__ssprint_r>
   83574:	350029e0 	cbnz	w0, 83ab0 <_svfprintf_r+0x8f0>
   83578:	51004318 	sub	w24, w24, #0x10
   8357c:	b9416be1 	ldr	w1, [sp, #360]
   83580:	f940bbe0 	ldr	x0, [sp, #368]
   83584:	aa1603e2 	mov	x2, x22
   83588:	d280020d 	mov	x13, #0x10                  	// #16
   8358c:	7100431f 	cmp	w24, #0x10
   83590:	54fffdac 	b.gt	83544 <_svfprintf_r+0x384>
   83594:	2a1a03e3 	mov	w3, w26
   83598:	b940d3e8 	ldr	w8, [sp, #208]
   8359c:	2a1803fa 	mov	w26, w24
   835a0:	b940e3e9 	ldr	w9, [sp, #224]
   835a4:	f9406ff8 	ldr	x24, [sp, #216]
   835a8:	aa1903e4 	mov	x4, x25
   835ac:	b940fbeb 	ldr	w11, [sp, #248]
   835b0:	aa1c03f9 	mov	x25, x28
   835b4:	aa0203fc 	mov	x28, x2
   835b8:	93407f47 	sxtw	x7, w26
   835bc:	11000421 	add	w1, w1, #0x1
   835c0:	8b070000 	add	x0, x0, x7
   835c4:	a9001f84 	stp	x4, x7, [x28]
   835c8:	9100439c 	add	x28, x28, #0x10
   835cc:	b9016be1 	str	w1, [sp, #360]
   835d0:	f900bbe0 	str	x0, [sp, #368]
   835d4:	71001c3f 	cmp	w1, #0x7
   835d8:	54fff46d 	b.le	83464 <_svfprintf_r+0x2a4>
   835dc:	910583e2 	add	x2, sp, #0x160
   835e0:	aa1503e1 	mov	x1, x21
   835e4:	aa1303e0 	mov	x0, x19
   835e8:	b900d3e8 	str	w8, [sp, #208]
   835ec:	b900dbe9 	str	w9, [sp, #216]
   835f0:	b900e3eb 	str	w11, [sp, #224]
   835f4:	b900fbe3 	str	w3, [sp, #248]
   835f8:	94003542 	bl	90b00 <__ssprint_r>
   835fc:	350025a0 	cbnz	w0, 83ab0 <_svfprintf_r+0x8f0>
   83600:	b940dbe9 	ldr	w9, [sp, #216]
   83604:	aa1603fc 	mov	x28, x22
   83608:	f940bbe0 	ldr	x0, [sp, #368]
   8360c:	b940d3e8 	ldr	w8, [sp, #208]
   83610:	b940e3eb 	ldr	w11, [sp, #224]
   83614:	b940fbe3 	ldr	w3, [sp, #248]
   83618:	3647f289 	tbz	w9, #8, 83468 <_svfprintf_r+0x2a8>
   8361c:	d503201f 	nop
   83620:	7101951f 	cmp	w8, #0x65
   83624:	5400268d 	b.le	83af4 <_svfprintf_r+0x934>
   83628:	1e602108 	fcmp	d8, #0.0
   8362c:	54003da1 	b.ne	83de0 <_svfprintf_r+0xc20>  // b.any
   83630:	b9416be1 	ldr	w1, [sp, #360]
   83634:	91000400 	add	x0, x0, #0x1
   83638:	d0000082 	adrp	x2, 95000 <pmu_event_descr+0x60>
   8363c:	d2800024 	mov	x4, #0x1                   	// #1
   83640:	91188042 	add	x2, x2, #0x620
   83644:	11000421 	add	w1, w1, #0x1
   83648:	a9001382 	stp	x2, x4, [x28]
   8364c:	9100439c 	add	x28, x28, #0x10
   83650:	b9016be1 	str	w1, [sp, #360]
   83654:	f900bbe0 	str	x0, [sp, #368]
   83658:	71001c3f 	cmp	w1, #0x7
   8365c:	5400be4c 	b.gt	84e24 <_svfprintf_r+0x1c64>
   83660:	b940cbe2 	ldr	w2, [sp, #200]
   83664:	b9413be1 	ldr	w1, [sp, #312]
   83668:	6b02003f 	cmp	w1, w2
   8366c:	54007d2a 	b.ge	84610 <_svfprintf_r+0x1450>  // b.tcont
   83670:	a94b13e2 	ldp	x2, x4, [sp, #176]
   83674:	a9000b84 	stp	x4, x2, [x28]
   83678:	b9416be1 	ldr	w1, [sp, #360]
   8367c:	9100439c 	add	x28, x28, #0x10
   83680:	11000421 	add	w1, w1, #0x1
   83684:	b9016be1 	str	w1, [sp, #360]
   83688:	8b020000 	add	x0, x0, x2
   8368c:	f900bbe0 	str	x0, [sp, #368]
   83690:	71001c3f 	cmp	w1, #0x7
   83694:	540089ac 	b.gt	847c8 <_svfprintf_r+0x1608>
   83698:	b940cbe1 	ldr	w1, [sp, #200]
   8369c:	5100043a 	sub	w26, w1, #0x1
   836a0:	7100035f 	cmp	w26, #0x0
   836a4:	54ffef6d 	b.le	83490 <_svfprintf_r+0x2d0>
   836a8:	d0000084 	adrp	x4, 95000 <pmu_event_descr+0x60>
   836ac:	b9416be1 	ldr	w1, [sp, #360]
   836b0:	911b8084 	add	x4, x4, #0x6e0
   836b4:	7100435f 	cmp	w26, #0x10
   836b8:	5400c72d 	b.le	84f9c <_svfprintf_r+0x1ddc>
   836bc:	aa1c03e2 	mov	x2, x28
   836c0:	2a1a03f8 	mov	w24, w26
   836c4:	aa1903fc 	mov	x28, x25
   836c8:	2a0303fa 	mov	w26, w3
   836cc:	aa0403f9 	mov	x25, x4
   836d0:	d280021b 	mov	x27, #0x10                  	// #16
   836d4:	b90093e9 	str	w9, [sp, #144]
   836d8:	b9009feb 	str	w11, [sp, #156]
   836dc:	14000004 	b	836ec <_svfprintf_r+0x52c>
   836e0:	51004318 	sub	w24, w24, #0x10
   836e4:	7100431f 	cmp	w24, #0x10
   836e8:	5400c4cd 	b.le	84f80 <_svfprintf_r+0x1dc0>
   836ec:	91004000 	add	x0, x0, #0x10
   836f0:	11000421 	add	w1, w1, #0x1
   836f4:	a9006c59 	stp	x25, x27, [x2]
   836f8:	91004042 	add	x2, x2, #0x10
   836fc:	b9016be1 	str	w1, [sp, #360]
   83700:	f900bbe0 	str	x0, [sp, #368]
   83704:	71001c3f 	cmp	w1, #0x7
   83708:	54fffecd 	b.le	836e0 <_svfprintf_r+0x520>
   8370c:	910583e2 	add	x2, sp, #0x160
   83710:	aa1503e1 	mov	x1, x21
   83714:	aa1303e0 	mov	x0, x19
   83718:	940034fa 	bl	90b00 <__ssprint_r>
   8371c:	35001ca0 	cbnz	w0, 83ab0 <_svfprintf_r+0x8f0>
   83720:	f940bbe0 	ldr	x0, [sp, #368]
   83724:	aa1603e2 	mov	x2, x22
   83728:	b9416be1 	ldr	w1, [sp, #360]
   8372c:	17ffffed 	b	836e0 <_svfprintf_r+0x520>
   83730:	d000008d 	adrp	x13, 95000 <pmu_event_descr+0x60>
   83734:	b9416be1 	ldr	w1, [sp, #360]
   83738:	911bc1ad 	add	x13, x13, #0x6f0
   8373c:	7100409f 	cmp	w4, #0x10
   83740:	5400060d 	b.le	83800 <_svfprintf_r+0x640>
   83744:	aa1c03e2 	mov	x2, x28
   83748:	d280020f 	mov	x15, #0x10                  	// #16
   8374c:	aa1903fc 	mov	x28, x25
   83750:	aa0d03f9 	mov	x25, x13
   83754:	b900d3f2 	str	w18, [sp, #208]
   83758:	b900dbe8 	str	w8, [sp, #216]
   8375c:	f90073f8 	str	x24, [sp, #224]
   83760:	2a0403f8 	mov	w24, w4
   83764:	b900fbe9 	str	w9, [sp, #248]
   83768:	b9010beb 	str	w11, [sp, #264]
   8376c:	b9011be7 	str	w7, [sp, #280]
   83770:	b9011fe3 	str	w3, [sp, #284]
   83774:	14000004 	b	83784 <_svfprintf_r+0x5c4>
   83778:	51004318 	sub	w24, w24, #0x10
   8377c:	7100431f 	cmp	w24, #0x10
   83780:	540002ad 	b.le	837d4 <_svfprintf_r+0x614>
   83784:	91004000 	add	x0, x0, #0x10
   83788:	11000421 	add	w1, w1, #0x1
   8378c:	a9003c59 	stp	x25, x15, [x2]
   83790:	91004042 	add	x2, x2, #0x10
   83794:	b9016be1 	str	w1, [sp, #360]
   83798:	f900bbe0 	str	x0, [sp, #368]
   8379c:	71001c3f 	cmp	w1, #0x7
   837a0:	54fffecd 	b.le	83778 <_svfprintf_r+0x5b8>
   837a4:	910583e2 	add	x2, sp, #0x160
   837a8:	aa1503e1 	mov	x1, x21
   837ac:	aa1303e0 	mov	x0, x19
   837b0:	940034d4 	bl	90b00 <__ssprint_r>
   837b4:	350017e0 	cbnz	w0, 83ab0 <_svfprintf_r+0x8f0>
   837b8:	51004318 	sub	w24, w24, #0x10
   837bc:	b9416be1 	ldr	w1, [sp, #360]
   837c0:	f940bbe0 	ldr	x0, [sp, #368]
   837c4:	aa1603e2 	mov	x2, x22
   837c8:	d280020f 	mov	x15, #0x10                  	// #16
   837cc:	7100431f 	cmp	w24, #0x10
   837d0:	54fffdac 	b.gt	83784 <_svfprintf_r+0x5c4>
   837d4:	2a1803e4 	mov	w4, w24
   837d8:	b940d3f2 	ldr	w18, [sp, #208]
   837dc:	f94073f8 	ldr	x24, [sp, #224]
   837e0:	aa1903ed 	mov	x13, x25
   837e4:	b940dbe8 	ldr	w8, [sp, #216]
   837e8:	aa1c03f9 	mov	x25, x28
   837ec:	b940fbe9 	ldr	w9, [sp, #248]
   837f0:	aa0203fc 	mov	x28, x2
   837f4:	b9410beb 	ldr	w11, [sp, #264]
   837f8:	b9411be7 	ldr	w7, [sp, #280]
   837fc:	b9411fe3 	ldr	w3, [sp, #284]
   83800:	93407c84 	sxtw	x4, w4
   83804:	11000421 	add	w1, w1, #0x1
   83808:	8b040000 	add	x0, x0, x4
   8380c:	a900138d 	stp	x13, x4, [x28]
   83810:	b9016be1 	str	w1, [sp, #360]
   83814:	f900bbe0 	str	x0, [sp, #368]
   83818:	71001c3f 	cmp	w1, #0x7
   8381c:	5400a12c 	b.gt	84c40 <_svfprintf_r+0x1a80>
   83820:	3944bfe1 	ldrb	w1, [sp, #303]
   83824:	9100439c 	add	x28, x28, #0x10
   83828:	17fffef0 	b	833e8 <_svfprintf_r+0x228>
   8382c:	910583e2 	add	x2, sp, #0x160
   83830:	aa1503e1 	mov	x1, x21
   83834:	aa1303e0 	mov	x0, x19
   83838:	b900d3f2 	str	w18, [sp, #208]
   8383c:	b900dbe8 	str	w8, [sp, #216]
   83840:	b900e3e9 	str	w9, [sp, #224]
   83844:	b900fbeb 	str	w11, [sp, #248]
   83848:	b9010be7 	str	w7, [sp, #264]
   8384c:	b9011be3 	str	w3, [sp, #280]
   83850:	940034ac 	bl	90b00 <__ssprint_r>
   83854:	350012e0 	cbnz	w0, 83ab0 <_svfprintf_r+0x8f0>
   83858:	f940bbe0 	ldr	x0, [sp, #368]
   8385c:	aa1603fc 	mov	x28, x22
   83860:	b940d3f2 	ldr	w18, [sp, #208]
   83864:	b940dbe8 	ldr	w8, [sp, #216]
   83868:	b940e3e9 	ldr	w9, [sp, #224]
   8386c:	b940fbeb 	ldr	w11, [sp, #248]
   83870:	b9410be7 	ldr	w7, [sp, #264]
   83874:	b9411be3 	ldr	w3, [sp, #280]
   83878:	17fffee9 	b	8341c <_svfprintf_r+0x25c>
   8387c:	b9416be1 	ldr	w1, [sp, #360]
   83880:	91000400 	add	x0, x0, #0x1
   83884:	d0000084 	adrp	x4, 95000 <pmu_event_descr+0x60>
   83888:	d2800027 	mov	x7, #0x1                   	// #1
   8388c:	91188084 	add	x4, x4, #0x620
   83890:	11000421 	add	w1, w1, #0x1
   83894:	a9001f84 	stp	x4, x7, [x28]
   83898:	9100439c 	add	x28, x28, #0x10
   8389c:	b9016be1 	str	w1, [sp, #360]
   838a0:	f900bbe0 	str	x0, [sp, #368]
   838a4:	71001c3f 	cmp	w1, #0x7
   838a8:	5400e2ac 	b.gt	854fc <_svfprintf_r+0x233c>
   838ac:	b940cbe1 	ldr	w1, [sp, #200]
   838b0:	2a020021 	orr	w1, w1, w2
   838b4:	3400e6a1 	cbz	w1, 85588 <_svfprintf_r+0x23c8>
   838b8:	a94b17e4 	ldp	x4, x5, [sp, #176]
   838bc:	a9001385 	stp	x5, x4, [x28]
   838c0:	b9416be1 	ldr	w1, [sp, #360]
   838c4:	91004386 	add	x6, x28, #0x10
   838c8:	11000421 	add	w1, w1, #0x1
   838cc:	b9016be1 	str	w1, [sp, #360]
   838d0:	8b000080 	add	x0, x4, x0
   838d4:	f900bbe0 	str	x0, [sp, #368]
   838d8:	71001c3f 	cmp	w1, #0x7
   838dc:	5400e6cc 	b.gt	855b4 <_svfprintf_r+0x23f4>
   838e0:	37f910a2 	tbnz	w2, #31, 85af4 <_svfprintf_r+0x2934>
   838e4:	b980cbe2 	ldrsw	x2, [sp, #200]
   838e8:	11000421 	add	w1, w1, #0x1
   838ec:	a90008d8 	stp	x24, x2, [x6]
   838f0:	910040dc 	add	x28, x6, #0x10
   838f4:	8b000040 	add	x0, x2, x0
   838f8:	b9016be1 	str	w1, [sp, #360]
   838fc:	f900bbe0 	str	x0, [sp, #368]
   83900:	71001c3f 	cmp	w1, #0x7
   83904:	54ffdc6d 	b.le	83490 <_svfprintf_r+0x2d0>
   83908:	910583e2 	add	x2, sp, #0x160
   8390c:	aa1503e1 	mov	x1, x21
   83910:	aa1303e0 	mov	x0, x19
   83914:	b90093e9 	str	w9, [sp, #144]
   83918:	29138feb 	stp	w11, w3, [sp, #156]
   8391c:	94003479 	bl	90b00 <__ssprint_r>
   83920:	35000c80 	cbnz	w0, 83ab0 <_svfprintf_r+0x8f0>
   83924:	f940bbe0 	ldr	x0, [sp, #368]
   83928:	aa1603fc 	mov	x28, x22
   8392c:	b94093e9 	ldr	w9, [sp, #144]
   83930:	29538feb 	ldp	w11, w3, [sp, #156]
   83934:	17fffed7 	b	83490 <_svfprintf_r+0x2d0>
   83938:	39400328 	ldrb	w8, [x25]
   8393c:	321c02f7 	orr	w23, w23, #0x10
   83940:	17fffe8a 	b	83368 <_svfprintf_r+0x1a8>
   83944:	2a0003f7 	mov	w23, w0
   83948:	cb190340 	sub	x0, x26, x25
   8394c:	2a0003fb 	mov	w27, w0
   83950:	34ffcfa0 	cbz	w0, 83344 <_svfprintf_r+0x184>
   83954:	17fffe6d 	b	83308 <_svfprintf_r+0x148>
   83958:	4b03017a 	sub	w26, w11, w3
   8395c:	7100035f 	cmp	w26, #0x0
   83960:	54ffd7cd 	b.le	83458 <_svfprintf_r+0x298>
   83964:	d0000084 	adrp	x4, 95000 <pmu_event_descr+0x60>
   83968:	b9416be1 	ldr	w1, [sp, #360]
   8396c:	911b8084 	add	x4, x4, #0x6e0
   83970:	7100435f 	cmp	w26, #0x10
   83974:	540005cd 	b.le	83a2c <_svfprintf_r+0x86c>
   83978:	aa1c03e2 	mov	x2, x28
   8397c:	d280020e 	mov	x14, #0x10                  	// #16
   83980:	aa1903fc 	mov	x28, x25
   83984:	aa0403f9 	mov	x25, x4
   83988:	b900d3e8 	str	w8, [sp, #208]
   8398c:	f9006ff8 	str	x24, [sp, #216]
   83990:	2a1a03f8 	mov	w24, w26
   83994:	2a0303fa 	mov	w26, w3
   83998:	b900e3e9 	str	w9, [sp, #224]
   8399c:	b900fbeb 	str	w11, [sp, #248]
   839a0:	b9010be7 	str	w7, [sp, #264]
   839a4:	14000004 	b	839b4 <_svfprintf_r+0x7f4>
   839a8:	51004318 	sub	w24, w24, #0x10
   839ac:	7100431f 	cmp	w24, #0x10
   839b0:	540002ad 	b.le	83a04 <_svfprintf_r+0x844>
   839b4:	91004000 	add	x0, x0, #0x10
   839b8:	11000421 	add	w1, w1, #0x1
   839bc:	a9003859 	stp	x25, x14, [x2]
   839c0:	91004042 	add	x2, x2, #0x10
   839c4:	b9016be1 	str	w1, [sp, #360]
   839c8:	f900bbe0 	str	x0, [sp, #368]
   839cc:	71001c3f 	cmp	w1, #0x7
   839d0:	54fffecd 	b.le	839a8 <_svfprintf_r+0x7e8>
   839d4:	910583e2 	add	x2, sp, #0x160
   839d8:	aa1503e1 	mov	x1, x21
   839dc:	aa1303e0 	mov	x0, x19
   839e0:	94003448 	bl	90b00 <__ssprint_r>
   839e4:	35000660 	cbnz	w0, 83ab0 <_svfprintf_r+0x8f0>
   839e8:	51004318 	sub	w24, w24, #0x10
   839ec:	b9416be1 	ldr	w1, [sp, #360]
   839f0:	f940bbe0 	ldr	x0, [sp, #368]
   839f4:	aa1603e2 	mov	x2, x22
   839f8:	d280020e 	mov	x14, #0x10                  	// #16
   839fc:	7100431f 	cmp	w24, #0x10
   83a00:	54fffdac 	b.gt	839b4 <_svfprintf_r+0x7f4>
   83a04:	2a1a03e3 	mov	w3, w26
   83a08:	b940d3e8 	ldr	w8, [sp, #208]
   83a0c:	2a1803fa 	mov	w26, w24
   83a10:	b940e3e9 	ldr	w9, [sp, #224]
   83a14:	f9406ff8 	ldr	x24, [sp, #216]
   83a18:	aa1903e4 	mov	x4, x25
   83a1c:	b940fbeb 	ldr	w11, [sp, #248]
   83a20:	aa1c03f9 	mov	x25, x28
   83a24:	b9410be7 	ldr	w7, [sp, #264]
   83a28:	aa0203fc 	mov	x28, x2
   83a2c:	93407f4d 	sxtw	x13, w26
   83a30:	11000421 	add	w1, w1, #0x1
   83a34:	8b0d0000 	add	x0, x0, x13
   83a38:	a9003784 	stp	x4, x13, [x28]
   83a3c:	9100439c 	add	x28, x28, #0x10
   83a40:	b9016be1 	str	w1, [sp, #360]
   83a44:	f900bbe0 	str	x0, [sp, #368]
   83a48:	71001c3f 	cmp	w1, #0x7
   83a4c:	54ffd06d 	b.le	83458 <_svfprintf_r+0x298>
   83a50:	910583e2 	add	x2, sp, #0x160
   83a54:	aa1503e1 	mov	x1, x21
   83a58:	aa1303e0 	mov	x0, x19
   83a5c:	b900d3e8 	str	w8, [sp, #208]
   83a60:	b900dbe9 	str	w9, [sp, #216]
   83a64:	b900e3eb 	str	w11, [sp, #224]
   83a68:	b900fbe7 	str	w7, [sp, #248]
   83a6c:	b9010be3 	str	w3, [sp, #264]
   83a70:	94003424 	bl	90b00 <__ssprint_r>
   83a74:	350001e0 	cbnz	w0, 83ab0 <_svfprintf_r+0x8f0>
   83a78:	f940bbe0 	ldr	x0, [sp, #368]
   83a7c:	aa1603fc 	mov	x28, x22
   83a80:	b940d3e8 	ldr	w8, [sp, #208]
   83a84:	b940dbe9 	ldr	w9, [sp, #216]
   83a88:	b940e3eb 	ldr	w11, [sp, #224]
   83a8c:	b940fbe7 	ldr	w7, [sp, #248]
   83a90:	b9410be3 	ldr	w3, [sp, #264]
   83a94:	17fffe71 	b	83458 <_svfprintf_r+0x298>
   83a98:	910583e2 	add	x2, sp, #0x160
   83a9c:	aa1503e1 	mov	x1, x21
   83aa0:	aa1303e0 	mov	x0, x19
   83aa4:	94003417 	bl	90b00 <__ssprint_r>
   83aa8:	34ffd080 	cbz	w0, 834b8 <_svfprintf_r+0x2f8>
   83aac:	d503201f 	nop
   83ab0:	b4000097 	cbz	x23, 83ac0 <_svfprintf_r+0x900>
   83ab4:	aa1703e1 	mov	x1, x23
   83ab8:	aa1303e0 	mov	x0, x19
   83abc:	94002f41 	bl	8f7c0 <_free_r>
   83ac0:	794022a0 	ldrh	w0, [x21, #16]
   83ac4:	121a0000 	and	w0, w0, #0x40
   83ac8:	a94363f7 	ldp	x23, x24, [sp, #48]
   83acc:	a9446bf9 	ldp	x25, x26, [sp, #64]
   83ad0:	a94573fb 	ldp	x27, x28, [sp, #80]
   83ad4:	6d4627e8 	ldp	d8, d9, [sp, #96]
   83ad8:	35010ee0 	cbnz	w0, 85cb4 <_svfprintf_r+0x2af4>
   83adc:	a9407bfd 	ldp	x29, x30, [sp]
   83ae0:	a94153f3 	ldp	x19, x20, [sp, #16]
   83ae4:	a9425bf5 	ldp	x21, x22, [sp, #32]
   83ae8:	b9407be0 	ldr	w0, [sp, #120]
   83aec:	910983ff 	add	sp, sp, #0x260
   83af0:	d65f03c0 	ret
   83af4:	b9416be1 	ldr	w1, [sp, #360]
   83af8:	91000400 	add	x0, x0, #0x1
   83afc:	b940cbe2 	ldr	w2, [sp, #200]
   83b00:	91004387 	add	x7, x28, #0x10
   83b04:	11000421 	add	w1, w1, #0x1
   83b08:	7100045f 	cmp	w2, #0x1
   83b0c:	540023ad 	b.le	83f80 <_svfprintf_r+0xdc0>
   83b10:	d2800022 	mov	x2, #0x1                   	// #1
   83b14:	a9000b98 	stp	x24, x2, [x28]
   83b18:	b9016be1 	str	w1, [sp, #360]
   83b1c:	f900bbe0 	str	x0, [sp, #368]
   83b20:	71001c3f 	cmp	w1, #0x7
   83b24:	54002bec 	b.gt	840a0 <_svfprintf_r+0xee0>
   83b28:	a94b13e2 	ldp	x2, x4, [sp, #176]
   83b2c:	11000421 	add	w1, w1, #0x1
   83b30:	a90008e4 	stp	x4, x2, [x7]
   83b34:	910040e7 	add	x7, x7, #0x10
   83b38:	b9016be1 	str	w1, [sp, #360]
   83b3c:	8b020000 	add	x0, x0, x2
   83b40:	f900bbe0 	str	x0, [sp, #368]
   83b44:	71001c3f 	cmp	w1, #0x7
   83b48:	540028ac 	b.gt	8405c <_svfprintf_r+0xe9c>
   83b4c:	1e602108 	fcmp	d8, #0.0
   83b50:	b940cbe2 	ldr	w2, [sp, #200]
   83b54:	5100045a 	sub	w26, w2, #0x1
   83b58:	540023c0 	b.eq	83fd0 <_svfprintf_r+0xe10>  // b.none
   83b5c:	93407f5a 	sxtw	x26, w26
   83b60:	11000421 	add	w1, w1, #0x1
   83b64:	8b1a0000 	add	x0, x0, x26
   83b68:	b9016be1 	str	w1, [sp, #360]
   83b6c:	f900bbe0 	str	x0, [sp, #368]
   83b70:	91000705 	add	x5, x24, #0x1
   83b74:	f90000e5 	str	x5, [x7]
   83b78:	f90004fa 	str	x26, [x7, #8]
   83b7c:	71001c3f 	cmp	w1, #0x7
   83b80:	540060ac 	b.gt	84794 <_svfprintf_r+0x15d4>
   83b84:	910040e7 	add	x7, x7, #0x10
   83b88:	b980cfe2 	ldrsw	x2, [sp, #204]
   83b8c:	11000421 	add	w1, w1, #0x1
   83b90:	910503e4 	add	x4, sp, #0x140
   83b94:	a90008e4 	stp	x4, x2, [x7]
   83b98:	8b000040 	add	x0, x2, x0
   83b9c:	b9016be1 	str	w1, [sp, #360]
   83ba0:	910040fc 	add	x28, x7, #0x10
   83ba4:	f900bbe0 	str	x0, [sp, #368]
   83ba8:	71001c3f 	cmp	w1, #0x7
   83bac:	54ffc72d 	b.le	83490 <_svfprintf_r+0x2d0>
   83bb0:	910583e2 	add	x2, sp, #0x160
   83bb4:	aa1503e1 	mov	x1, x21
   83bb8:	aa1303e0 	mov	x0, x19
   83bbc:	b90093e9 	str	w9, [sp, #144]
   83bc0:	29138feb 	stp	w11, w3, [sp, #156]
   83bc4:	940033cf 	bl	90b00 <__ssprint_r>
   83bc8:	35fff740 	cbnz	w0, 83ab0 <_svfprintf_r+0x8f0>
   83bcc:	f940bbe0 	ldr	x0, [sp, #368]
   83bd0:	aa1603fc 	mov	x28, x22
   83bd4:	b94093e9 	ldr	w9, [sp, #144]
   83bd8:	29538feb 	ldp	w11, w3, [sp, #156]
   83bdc:	17fffe2d 	b	83490 <_svfprintf_r+0x2d0>
   83be0:	910583e2 	add	x2, sp, #0x160
   83be4:	aa1503e1 	mov	x1, x21
   83be8:	aa1303e0 	mov	x0, x19
   83bec:	940033c5 	bl	90b00 <__ssprint_r>
   83bf0:	35fff680 	cbnz	w0, 83ac0 <_svfprintf_r+0x900>
   83bf4:	aa1603fc 	mov	x28, x22
   83bf8:	17fffdcf 	b	83334 <_svfprintf_r+0x174>
   83bfc:	910583e2 	add	x2, sp, #0x160
   83c00:	aa1503e1 	mov	x1, x21
   83c04:	aa1303e0 	mov	x0, x19
   83c08:	b900d3e8 	str	w8, [sp, #208]
   83c0c:	b900dbe9 	str	w9, [sp, #216]
   83c10:	b900e3eb 	str	w11, [sp, #224]
   83c14:	b900fbe7 	str	w7, [sp, #248]
   83c18:	b9010be3 	str	w3, [sp, #264]
   83c1c:	940033b9 	bl	90b00 <__ssprint_r>
   83c20:	35fff480 	cbnz	w0, 83ab0 <_svfprintf_r+0x8f0>
   83c24:	f940bbe0 	ldr	x0, [sp, #368]
   83c28:	aa1603fc 	mov	x28, x22
   83c2c:	b940d3e8 	ldr	w8, [sp, #208]
   83c30:	b940dbe9 	ldr	w9, [sp, #216]
   83c34:	b940e3eb 	ldr	w11, [sp, #224]
   83c38:	b940fbe7 	ldr	w7, [sp, #248]
   83c3c:	b9410be3 	ldr	w3, [sp, #264]
   83c40:	17fffe04 	b	83450 <_svfprintf_r+0x290>
   83c44:	d000008d 	adrp	x13, 95000 <pmu_event_descr+0x60>
   83c48:	b9416be1 	ldr	w1, [sp, #360]
   83c4c:	911bc1ad 	add	x13, x13, #0x6f0
   83c50:	7100435f 	cmp	w26, #0x10
   83c54:	5400046d 	b.le	83ce0 <_svfprintf_r+0xb20>
   83c58:	2a1a03f8 	mov	w24, w26
   83c5c:	d280021b 	mov	x27, #0x10                  	// #16
   83c60:	aa1903fa 	mov	x26, x25
   83c64:	aa0d03f9 	mov	x25, x13
   83c68:	b90093eb 	str	w11, [sp, #144]
   83c6c:	b9009fe3 	str	w3, [sp, #156]
   83c70:	14000004 	b	83c80 <_svfprintf_r+0xac0>
   83c74:	51004318 	sub	w24, w24, #0x10
   83c78:	7100431f 	cmp	w24, #0x10
   83c7c:	5400028d 	b.le	83ccc <_svfprintf_r+0xb0c>
   83c80:	91004000 	add	x0, x0, #0x10
   83c84:	11000421 	add	w1, w1, #0x1
   83c88:	a9006f99 	stp	x25, x27, [x28]
   83c8c:	9100439c 	add	x28, x28, #0x10
   83c90:	b9016be1 	str	w1, [sp, #360]
   83c94:	f900bbe0 	str	x0, [sp, #368]
   83c98:	71001c3f 	cmp	w1, #0x7
   83c9c:	54fffecd 	b.le	83c74 <_svfprintf_r+0xab4>
   83ca0:	910583e2 	add	x2, sp, #0x160
   83ca4:	aa1503e1 	mov	x1, x21
   83ca8:	aa1303e0 	mov	x0, x19
   83cac:	94003395 	bl	90b00 <__ssprint_r>
   83cb0:	35fff000 	cbnz	w0, 83ab0 <_svfprintf_r+0x8f0>
   83cb4:	51004318 	sub	w24, w24, #0x10
   83cb8:	b9416be1 	ldr	w1, [sp, #360]
   83cbc:	f940bbe0 	ldr	x0, [sp, #368]
   83cc0:	aa1603fc 	mov	x28, x22
   83cc4:	7100431f 	cmp	w24, #0x10
   83cc8:	54fffdcc 	b.gt	83c80 <_svfprintf_r+0xac0>
   83ccc:	b94093eb 	ldr	w11, [sp, #144]
   83cd0:	aa1903ed 	mov	x13, x25
   83cd4:	b9409fe3 	ldr	w3, [sp, #156]
   83cd8:	aa1a03f9 	mov	x25, x26
   83cdc:	2a1803fa 	mov	w26, w24
   83ce0:	93407f5a 	sxtw	x26, w26
   83ce4:	11000421 	add	w1, w1, #0x1
   83ce8:	8b1a0000 	add	x0, x0, x26
   83cec:	a9006b8d 	stp	x13, x26, [x28]
   83cf0:	b9016be1 	str	w1, [sp, #360]
   83cf4:	f900bbe0 	str	x0, [sp, #368]
   83cf8:	71001c3f 	cmp	w1, #0x7
   83cfc:	54ffbd2d 	b.le	834a0 <_svfprintf_r+0x2e0>
   83d00:	910583e2 	add	x2, sp, #0x160
   83d04:	aa1503e1 	mov	x1, x21
   83d08:	aa1303e0 	mov	x0, x19
   83d0c:	b90093eb 	str	w11, [sp, #144]
   83d10:	b9009fe3 	str	w3, [sp, #156]
   83d14:	9400337b 	bl	90b00 <__ssprint_r>
   83d18:	35ffecc0 	cbnz	w0, 83ab0 <_svfprintf_r+0x8f0>
   83d1c:	f940bbe0 	ldr	x0, [sp, #368]
   83d20:	b94093eb 	ldr	w11, [sp, #144]
   83d24:	b9409fe3 	ldr	w3, [sp, #156]
   83d28:	17fffdde 	b	834a0 <_svfprintf_r+0x2e0>
   83d2c:	b940ffe0 	ldr	w0, [sp, #252]
   83d30:	2a1703e9 	mov	w9, w23
   83d34:	2a1803eb 	mov	w11, w24
   83d38:	2a1a03e7 	mov	w7, w26
   83d3c:	36184929 	tbz	w9, #3, 84660 <_svfprintf_r+0x14a0>
   83d40:	37f8b8c0 	tbnz	w0, #31, 85458 <_svfprintf_r+0x2298>
   83d44:	f94043e0 	ldr	x0, [sp, #128]
   83d48:	91003c00 	add	x0, x0, #0xf
   83d4c:	927cec00 	and	x0, x0, #0xfffffffffffffff0
   83d50:	91004001 	add	x1, x0, #0x10
   83d54:	f90043e1 	str	x1, [sp, #128]
   83d58:	3dc00000 	ldr	q0, [x0]
   83d5c:	b90093e8 	str	w8, [sp, #144]
   83d60:	2913afe9 	stp	w9, w11, [sp, #156]
   83d64:	b900d3e7 	str	w7, [sp, #208]
   83d68:	94004306 	bl	94980 <__trunctfdf2>
   83d6c:	b94093e8 	ldr	w8, [sp, #144]
   83d70:	1e604008 	fmov	d8, d0
   83d74:	2953afe9 	ldp	w9, w11, [sp, #156]
   83d78:	b940d3e7 	ldr	w7, [sp, #208]
   83d7c:	1e60c100 	fabs	d0, d8
   83d80:	92f00200 	mov	x0, #0x7fefffffffffffff    	// #9218868437227405311
   83d84:	9e670001 	fmov	d1, x0
   83d88:	1e612000 	fcmp	d0, d1
   83d8c:	5400798d 	b.le	84cbc <_svfprintf_r+0x1afc>
   83d90:	1e602118 	fcmpe	d8, #0.0
   83d94:	5400b964 	b.mi	854c0 <_svfprintf_r+0x2300>  // b.first
   83d98:	3944bfe1 	ldrb	w1, [sp, #303]
   83d9c:	d0000080 	adrp	x0, 95000 <pmu_event_descr+0x60>
   83da0:	d0000085 	adrp	x5, 95000 <pmu_event_descr+0x60>
   83da4:	7101211f 	cmp	w8, #0x48
   83da8:	91174000 	add	x0, x0, #0x5d0
   83dac:	911720a5 	add	x5, x5, #0x5c8
   83db0:	b90093ff 	str	wzr, [sp, #144]
   83db4:	52800063 	mov	w3, #0x3                   	// #3
   83db8:	2913ffff 	stp	wzr, wzr, [sp, #156]
   83dbc:	12187929 	and	w9, w9, #0xffffff7f
   83dc0:	9a80b0b8 	csel	x24, x5, x0, lt	// lt = tstop
   83dc4:	2a0303fb 	mov	w27, w3
   83dc8:	d2800017 	mov	x23, #0x0                   	// #0
   83dcc:	52800007 	mov	w7, #0x0                   	// #0
   83dd0:	34ffaf81 	cbz	w1, 833c0 <_svfprintf_r+0x200>
   83dd4:	d503201f 	nop
   83dd8:	11000463 	add	w3, w3, #0x1
   83ddc:	17fffd79 	b	833c0 <_svfprintf_r+0x200>
   83de0:	b9413be2 	ldr	w2, [sp, #312]
   83de4:	7100005f 	cmp	w2, #0x0
   83de8:	54ffd4ad 	b.le	8387c <_svfprintf_r+0x6bc>
   83dec:	b940cbe1 	ldr	w1, [sp, #200]
   83df0:	b94093e2 	ldr	w2, [sp, #144]
   83df4:	6b01005f 	cmp	w2, w1
   83df8:	8b21c304 	add	x4, x24, w1, sxtw
   83dfc:	1a81d05b 	csel	w27, w2, w1, le
   83e00:	f9006be4 	str	x4, [sp, #208]
   83e04:	7100037f 	cmp	w27, #0x0
   83e08:	5400016d 	b.le	83e34 <_svfprintf_r+0xc74>
   83e0c:	b9416be1 	ldr	w1, [sp, #360]
   83e10:	93407f62 	sxtw	x2, w27
   83e14:	8b020000 	add	x0, x0, x2
   83e18:	a9000b98 	stp	x24, x2, [x28]
   83e1c:	11000421 	add	w1, w1, #0x1
   83e20:	b9016be1 	str	w1, [sp, #360]
   83e24:	9100439c 	add	x28, x28, #0x10
   83e28:	f900bbe0 	str	x0, [sp, #368]
   83e2c:	71001c3f 	cmp	w1, #0x7
   83e30:	5400b90c 	b.gt	85550 <_svfprintf_r+0x2390>
   83e34:	7100037f 	cmp	w27, #0x0
   83e38:	b94093e1 	ldr	w1, [sp, #144]
   83e3c:	1a9fa364 	csel	w4, w27, wzr, ge	// ge = tcont
   83e40:	4b04003b 	sub	w27, w1, w4
   83e44:	7100037f 	cmp	w27, #0x0
   83e48:	5400518c 	b.gt	84878 <_svfprintf_r+0x16b8>
   83e4c:	b94093e1 	ldr	w1, [sp, #144]
   83e50:	8b21c318 	add	x24, x24, w1, sxtw
   83e54:	375059e9 	tbnz	w9, #10, 84990 <_svfprintf_r+0x17d0>
   83e58:	b940cbe1 	ldr	w1, [sp, #200]
   83e5c:	b9413bfa 	ldr	w26, [sp, #312]
   83e60:	6b01035f 	cmp	w26, w1
   83e64:	5400004b 	b.lt	83e6c <_svfprintf_r+0xcac>  // b.tstop
   83e68:	3600bc29 	tbz	w9, #0, 855ec <_svfprintf_r+0x242c>
   83e6c:	a94b13e2 	ldp	x2, x4, [sp, #176]
   83e70:	a9000b84 	stp	x4, x2, [x28]
   83e74:	b9416be1 	ldr	w1, [sp, #360]
   83e78:	9100439c 	add	x28, x28, #0x10
   83e7c:	11000421 	add	w1, w1, #0x1
   83e80:	b9016be1 	str	w1, [sp, #360]
   83e84:	8b020000 	add	x0, x0, x2
   83e88:	f900bbe0 	str	x0, [sp, #368]
   83e8c:	71001c3f 	cmp	w1, #0x7
   83e90:	5400d96c 	b.gt	859bc <_svfprintf_r+0x27fc>
   83e94:	b940cbe1 	ldr	w1, [sp, #200]
   83e98:	4b1a003a 	sub	w26, w1, w26
   83e9c:	f9406be1 	ldr	x1, [sp, #208]
   83ea0:	cb18003b 	sub	x27, x1, x24
   83ea4:	6b1b035f 	cmp	w26, w27
   83ea8:	1a9bb35b 	csel	w27, w26, w27, lt	// lt = tstop
   83eac:	7100037f 	cmp	w27, #0x0
   83eb0:	5400016d 	b.le	83edc <_svfprintf_r+0xd1c>
   83eb4:	b9416be1 	ldr	w1, [sp, #360]
   83eb8:	93407f62 	sxtw	x2, w27
   83ebc:	8b020000 	add	x0, x0, x2
   83ec0:	a9000b98 	stp	x24, x2, [x28]
   83ec4:	11000421 	add	w1, w1, #0x1
   83ec8:	b9016be1 	str	w1, [sp, #360]
   83ecc:	9100439c 	add	x28, x28, #0x10
   83ed0:	f900bbe0 	str	x0, [sp, #368]
   83ed4:	71001c3f 	cmp	w1, #0x7
   83ed8:	5400dd4c 	b.gt	85a80 <_svfprintf_r+0x28c0>
   83edc:	7100037f 	cmp	w27, #0x0
   83ee0:	1a9fa37b 	csel	w27, w27, wzr, ge	// ge = tcont
   83ee4:	4b1b035a 	sub	w26, w26, w27
   83ee8:	7100035f 	cmp	w26, #0x0
   83eec:	54ffad2d 	b.le	83490 <_svfprintf_r+0x2d0>
   83ef0:	d0000084 	adrp	x4, 95000 <pmu_event_descr+0x60>
   83ef4:	b9416be1 	ldr	w1, [sp, #360]
   83ef8:	911b8084 	add	x4, x4, #0x6e0
   83efc:	7100435f 	cmp	w26, #0x10
   83f00:	540084ed 	b.le	84f9c <_svfprintf_r+0x1ddc>
   83f04:	2a1a03e5 	mov	w5, w26
   83f08:	aa1c03e2 	mov	x2, x28
   83f0c:	aa1703fa 	mov	x26, x23
   83f10:	aa1903fc 	mov	x28, x25
   83f14:	aa0403f8 	mov	x24, x4
   83f18:	2a0303f9 	mov	w25, w3
   83f1c:	2a0503f7 	mov	w23, w5
   83f20:	d280021b 	mov	x27, #0x10                  	// #16
   83f24:	b90093e9 	str	w9, [sp, #144]
   83f28:	b9009feb 	str	w11, [sp, #156]
   83f2c:	14000004 	b	83f3c <_svfprintf_r+0xd7c>
   83f30:	510042f7 	sub	w23, w23, #0x10
   83f34:	710042ff 	cmp	w23, #0x10
   83f38:	5400d86d 	b.le	85a44 <_svfprintf_r+0x2884>
   83f3c:	91004000 	add	x0, x0, #0x10
   83f40:	11000421 	add	w1, w1, #0x1
   83f44:	a9006c58 	stp	x24, x27, [x2]
   83f48:	91004042 	add	x2, x2, #0x10
   83f4c:	b9016be1 	str	w1, [sp, #360]
   83f50:	f900bbe0 	str	x0, [sp, #368]
   83f54:	71001c3f 	cmp	w1, #0x7
   83f58:	54fffecd 	b.le	83f30 <_svfprintf_r+0xd70>
   83f5c:	910583e2 	add	x2, sp, #0x160
   83f60:	aa1503e1 	mov	x1, x21
   83f64:	aa1303e0 	mov	x0, x19
   83f68:	940032e6 	bl	90b00 <__ssprint_r>
   83f6c:	35010140 	cbnz	w0, 85f94 <_svfprintf_r+0x2dd4>
   83f70:	f940bbe0 	ldr	x0, [sp, #368]
   83f74:	aa1603e2 	mov	x2, x22
   83f78:	b9416be1 	ldr	w1, [sp, #360]
   83f7c:	17ffffed 	b	83f30 <_svfprintf_r+0xd70>
   83f80:	3707dc89 	tbnz	w9, #0, 83b10 <_svfprintf_r+0x950>
   83f84:	d2800022 	mov	x2, #0x1                   	// #1
   83f88:	a9000b98 	stp	x24, x2, [x28]
   83f8c:	b9016be1 	str	w1, [sp, #360]
   83f90:	f900bbe0 	str	x0, [sp, #368]
   83f94:	71001c3f 	cmp	w1, #0x7
   83f98:	54ffdf8d 	b.le	83b88 <_svfprintf_r+0x9c8>
   83f9c:	910583e2 	add	x2, sp, #0x160
   83fa0:	aa1503e1 	mov	x1, x21
   83fa4:	aa1303e0 	mov	x0, x19
   83fa8:	b90093e9 	str	w9, [sp, #144]
   83fac:	29138feb 	stp	w11, w3, [sp, #156]
   83fb0:	940032d4 	bl	90b00 <__ssprint_r>
   83fb4:	35ffd7e0 	cbnz	w0, 83ab0 <_svfprintf_r+0x8f0>
   83fb8:	f940bbe0 	ldr	x0, [sp, #368]
   83fbc:	aa1603e7 	mov	x7, x22
   83fc0:	b94093e9 	ldr	w9, [sp, #144]
   83fc4:	29538feb 	ldp	w11, w3, [sp, #156]
   83fc8:	b9416be1 	ldr	w1, [sp, #360]
   83fcc:	17fffeef 	b	83b88 <_svfprintf_r+0x9c8>
   83fd0:	b940cbe2 	ldr	w2, [sp, #200]
   83fd4:	7100045f 	cmp	w2, #0x1
   83fd8:	54ffdd8d 	b.le	83b88 <_svfprintf_r+0x9c8>
   83fdc:	d0000084 	adrp	x4, 95000 <pmu_event_descr+0x60>
   83fe0:	911b8084 	add	x4, x4, #0x6e0
   83fe4:	7100445f 	cmp	w2, #0x11
   83fe8:	54003c4d 	b.le	84770 <_svfprintf_r+0x15b0>
   83fec:	2a1a03f8 	mov	w24, w26
   83ff0:	2a0b03fc 	mov	w28, w11
   83ff4:	aa1903fa 	mov	x26, x25
   83ff8:	d280021b 	mov	x27, #0x10                  	// #16
   83ffc:	aa0403f9 	mov	x25, x4
   84000:	b90093e9 	str	w9, [sp, #144]
   84004:	b9009fe3 	str	w3, [sp, #156]
   84008:	14000004 	b	84018 <_svfprintf_r+0xe58>
   8400c:	51004318 	sub	w24, w24, #0x10
   84010:	7100431f 	cmp	w24, #0x10
   84014:	54003a2d 	b.le	84758 <_svfprintf_r+0x1598>
   84018:	91004000 	add	x0, x0, #0x10
   8401c:	11000421 	add	w1, w1, #0x1
   84020:	a9006cf9 	stp	x25, x27, [x7]
   84024:	910040e7 	add	x7, x7, #0x10
   84028:	b9016be1 	str	w1, [sp, #360]
   8402c:	f900bbe0 	str	x0, [sp, #368]
   84030:	71001c3f 	cmp	w1, #0x7
   84034:	54fffecd 	b.le	8400c <_svfprintf_r+0xe4c>
   84038:	910583e2 	add	x2, sp, #0x160
   8403c:	aa1503e1 	mov	x1, x21
   84040:	aa1303e0 	mov	x0, x19
   84044:	940032af 	bl	90b00 <__ssprint_r>
   84048:	35ffd340 	cbnz	w0, 83ab0 <_svfprintf_r+0x8f0>
   8404c:	f940bbe0 	ldr	x0, [sp, #368]
   84050:	aa1603e7 	mov	x7, x22
   84054:	b9416be1 	ldr	w1, [sp, #360]
   84058:	17ffffed 	b	8400c <_svfprintf_r+0xe4c>
   8405c:	910583e2 	add	x2, sp, #0x160
   84060:	aa1503e1 	mov	x1, x21
   84064:	aa1303e0 	mov	x0, x19
   84068:	b90093e9 	str	w9, [sp, #144]
   8406c:	29138feb 	stp	w11, w3, [sp, #156]
   84070:	940032a4 	bl	90b00 <__ssprint_r>
   84074:	35ffd1e0 	cbnz	w0, 83ab0 <_svfprintf_r+0x8f0>
   84078:	1e602108 	fcmp	d8, #0.0
   8407c:	b940cbe2 	ldr	w2, [sp, #200]
   84080:	f940bbe0 	ldr	x0, [sp, #368]
   84084:	aa1603e7 	mov	x7, x22
   84088:	b94093e9 	ldr	w9, [sp, #144]
   8408c:	5100045a 	sub	w26, w2, #0x1
   84090:	29538feb 	ldp	w11, w3, [sp, #156]
   84094:	b9416be1 	ldr	w1, [sp, #360]
   84098:	54fff9c0 	b.eq	83fd0 <_svfprintf_r+0xe10>  // b.none
   8409c:	17fffeb0 	b	83b5c <_svfprintf_r+0x99c>
   840a0:	910583e2 	add	x2, sp, #0x160
   840a4:	aa1503e1 	mov	x1, x21
   840a8:	aa1303e0 	mov	x0, x19
   840ac:	b90093e9 	str	w9, [sp, #144]
   840b0:	29138feb 	stp	w11, w3, [sp, #156]
   840b4:	94003293 	bl	90b00 <__ssprint_r>
   840b8:	35ffcfc0 	cbnz	w0, 83ab0 <_svfprintf_r+0x8f0>
   840bc:	f940bbe0 	ldr	x0, [sp, #368]
   840c0:	aa1603e7 	mov	x7, x22
   840c4:	b94093e9 	ldr	w9, [sp, #144]
   840c8:	29538feb 	ldp	w11, w3, [sp, #156]
   840cc:	b9416be1 	ldr	w1, [sp, #360]
   840d0:	17fffe96 	b	83b28 <_svfprintf_r+0x968>
   840d4:	b9409be0 	ldr	w0, [sp, #152]
   840d8:	2a1703e9 	mov	w9, w23
   840dc:	2a1803eb 	mov	w11, w24
   840e0:	2a1a03e7 	mov	w7, w26
   840e4:	37f82fa0 	tbnz	w0, #31, 846d8 <_svfprintf_r+0x1518>
   840e8:	f94043e0 	ldr	x0, [sp, #128]
   840ec:	91003c01 	add	x1, x0, #0xf
   840f0:	927df021 	and	x1, x1, #0xfffffffffffffff8
   840f4:	f90043e1 	str	x1, [sp, #128]
   840f8:	f9400018 	ldr	x24, [x0]
   840fc:	3904bfff 	strb	wzr, [sp, #303]
   84100:	b4007cb8 	cbz	x24, 85094 <_svfprintf_r+0x1ed4>
   84104:	71014d1f 	cmp	w8, #0x53
   84108:	54006a60 	b.eq	84e54 <_svfprintf_r+0x1c94>  // b.none
   8410c:	121c0120 	and	w0, w9, #0x10
   84110:	b90093e0 	str	w0, [sp, #144]
   84114:	37206a09 	tbnz	w9, #4, 84e54 <_svfprintf_r+0x1c94>
   84118:	310004ff 	cmn	w7, #0x1
   8411c:	5400ace0 	b.eq	856b8 <_svfprintf_r+0x24f8>  // b.none
   84120:	93407ce2 	sxtw	x2, w7
   84124:	aa1803e0 	mov	x0, x24
   84128:	52800001 	mov	w1, #0x0                   	// #0
   8412c:	2913a7e7 	stp	w7, w9, [sp, #156]
   84130:	b900d3eb 	str	w11, [sp, #208]
   84134:	94002323 	bl	8cdc0 <memchr>
   84138:	2953a7e7 	ldp	w7, w9, [sp, #156]
   8413c:	aa0003f7 	mov	x23, x0
   84140:	b940d3eb 	ldr	w11, [sp, #208]
   84144:	b400ed60 	cbz	x0, 85ef0 <_svfprintf_r+0x2d30>
   84148:	3944bfe1 	ldrb	w1, [sp, #303]
   8414c:	cb180003 	sub	x3, x0, x24
   84150:	2913ffff 	stp	wzr, wzr, [sp, #156]
   84154:	7100007f 	cmp	w3, #0x0
   84158:	2a0303fb 	mov	w27, w3
   8415c:	52800007 	mov	w7, #0x0                   	// #0
   84160:	1a9fa063 	csel	w3, w3, wzr, ge	// ge = tcont
   84164:	d2800017 	mov	x23, #0x0                   	// #0
   84168:	52800e68 	mov	w8, #0x73                  	// #115
   8416c:	34ff92a1 	cbz	w1, 833c0 <_svfprintf_r+0x200>
   84170:	17ffff1a 	b	83dd8 <_svfprintf_r+0xc18>
   84174:	2a1703e9 	mov	w9, w23
   84178:	2a1803eb 	mov	w11, w24
   8417c:	71010d1f 	cmp	w8, #0x43
   84180:	54000040 	b.eq	84188 <_svfprintf_r+0xfc8>  // b.none
   84184:	36202d29 	tbz	w9, #4, 84728 <_svfprintf_r+0x1568>
   84188:	910563e0 	add	x0, sp, #0x158
   8418c:	d2800102 	mov	x2, #0x8                   	// #8
   84190:	52800001 	mov	w1, #0x0                   	// #0
   84194:	b90093e8 	str	w8, [sp, #144]
   84198:	2913afe9 	stp	w9, w11, [sp, #156]
   8419c:	94002509 	bl	8d5c0 <memset>
   841a0:	295327e0 	ldp	w0, w9, [sp, #152]
   841a4:	b94093e8 	ldr	w8, [sp, #144]
   841a8:	b940a3eb 	ldr	w11, [sp, #160]
   841ac:	37f87fa0 	tbnz	w0, #31, 851a0 <_svfprintf_r+0x1fe0>
   841b0:	f94043e0 	ldr	x0, [sp, #128]
   841b4:	91002c01 	add	x1, x0, #0xb
   841b8:	927df021 	and	x1, x1, #0xfffffffffffffff8
   841bc:	f90043e1 	str	x1, [sp, #128]
   841c0:	b9400002 	ldr	w2, [x0]
   841c4:	9105e3f7 	add	x23, sp, #0x178
   841c8:	910563e3 	add	x3, sp, #0x158
   841cc:	aa1703e1 	mov	x1, x23
   841d0:	aa1303e0 	mov	x0, x19
   841d4:	b90093e8 	str	w8, [sp, #144]
   841d8:	2913afe9 	stp	w9, w11, [sp, #156]
   841dc:	94001ef5 	bl	8bdb0 <_wcrtomb_r>
   841e0:	2a0003fb 	mov	w27, w0
   841e4:	b94093e8 	ldr	w8, [sp, #144]
   841e8:	3100041f 	cmn	w0, #0x1
   841ec:	2953afe9 	ldp	w9, w11, [sp, #156]
   841f0:	5400d540 	b.eq	85c98 <_svfprintf_r+0x2ad8>  // b.none
   841f4:	7100001f 	cmp	w0, #0x0
   841f8:	1a9fa003 	csel	w3, w0, wzr, ge	// ge = tcont
   841fc:	aa1703f8 	mov	x24, x23
   84200:	52800001 	mov	w1, #0x0                   	// #0
   84204:	d2800017 	mov	x23, #0x0                   	// #0
   84208:	52800007 	mov	w7, #0x0                   	// #0
   8420c:	b90093ff 	str	wzr, [sp, #144]
   84210:	2913ffff 	stp	wzr, wzr, [sp, #156]
   84214:	3904bfff 	strb	wzr, [sp, #303]
   84218:	17fffc6a 	b	833c0 <_svfprintf_r+0x200>
   8421c:	4b1803f8 	neg	w24, w24
   84220:	f90043e0 	str	x0, [sp, #128]
   84224:	39400328 	ldrb	w8, [x25]
   84228:	321e02f7 	orr	w23, w23, #0x4
   8422c:	17fffc4f 	b	83368 <_svfprintf_r+0x1a8>
   84230:	2a1a03e7 	mov	w7, w26
   84234:	2a1803eb 	mov	w11, w24
   84238:	321c02fa 	orr	w26, w23, #0x10
   8423c:	b9409be0 	ldr	w0, [sp, #152]
   84240:	3728005a 	tbnz	w26, #5, 84248 <_svfprintf_r+0x1088>
   84244:	36201fda 	tbz	w26, #4, 8463c <_svfprintf_r+0x147c>
   84248:	37f848a0 	tbnz	w0, #31, 84b5c <_svfprintf_r+0x199c>
   8424c:	f94043e0 	ldr	x0, [sp, #128]
   84250:	91003c01 	add	x1, x0, #0xf
   84254:	927df021 	and	x1, x1, #0xfffffffffffffff8
   84258:	f90043e1 	str	x1, [sp, #128]
   8425c:	f9400000 	ldr	x0, [x0]
   84260:	52800021 	mov	w1, #0x1                   	// #1
   84264:	52800002 	mov	w2, #0x0                   	// #0
   84268:	3904bfe2 	strb	w2, [sp, #303]
   8426c:	310004ff 	cmn	w7, #0x1
   84270:	540016e0 	b.eq	8454c <_svfprintf_r+0x138c>  // b.none
   84274:	f100001f 	cmp	x0, #0x0
   84278:	12187b49 	and	w9, w26, #0xffffff7f
   8427c:	7a4008e0 	ccmp	w7, #0x0, #0x0, eq	// eq = none
   84280:	54001641 	b.ne	84548 <_svfprintf_r+0x1388>  // b.any
   84284:	35000461 	cbnz	w1, 84310 <_svfprintf_r+0x1150>
   84288:	1200035b 	and	w27, w26, #0x1
   8428c:	36001b3a 	tbz	w26, #0, 845f0 <_svfprintf_r+0x1430>
   84290:	91076ff8 	add	x24, sp, #0x1db
   84294:	52800600 	mov	w0, #0x30                  	// #48
   84298:	52800007 	mov	w7, #0x0                   	// #0
   8429c:	39076fe0 	strb	w0, [sp, #475]
   842a0:	3944bfe1 	ldrb	w1, [sp, #303]
   842a4:	6b1b00ff 	cmp	w7, w27
   842a8:	b90093ff 	str	wzr, [sp, #144]
   842ac:	1a9ba0e3 	csel	w3, w7, w27, ge	// ge = tcont
   842b0:	2913ffff 	stp	wzr, wzr, [sp, #156]
   842b4:	d2800017 	mov	x23, #0x0                   	// #0
   842b8:	34ff8841 	cbz	w1, 833c0 <_svfprintf_r+0x200>
   842bc:	17fffec7 	b	83dd8 <_svfprintf_r+0xc18>
   842c0:	2a1803eb 	mov	w11, w24
   842c4:	2a1a03e7 	mov	w7, w26
   842c8:	321c02e9 	orr	w9, w23, #0x10
   842cc:	b9409be0 	ldr	w0, [sp, #152]
   842d0:	37280049 	tbnz	w9, #5, 842d8 <_svfprintf_r+0x1118>
   842d4:	36201a29 	tbz	w9, #4, 84618 <_svfprintf_r+0x1458>
   842d8:	37f842e0 	tbnz	w0, #31, 84b34 <_svfprintf_r+0x1974>
   842dc:	f94043e0 	ldr	x0, [sp, #128]
   842e0:	91003c01 	add	x1, x0, #0xf
   842e4:	927df021 	and	x1, x1, #0xfffffffffffffff8
   842e8:	f90043e1 	str	x1, [sp, #128]
   842ec:	f9400001 	ldr	x1, [x0]
   842f0:	aa0103e0 	mov	x0, x1
   842f4:	b7f81841 	tbnz	x1, #63, 845fc <_svfprintf_r+0x143c>
   842f8:	310004ff 	cmn	w7, #0x1
   842fc:	54001680 	b.eq	845cc <_svfprintf_r+0x140c>  // b.none
   84300:	710000ff 	cmp	w7, #0x0
   84304:	12187929 	and	w9, w9, #0xffffff7f
   84308:	fa400800 	ccmp	x0, #0x0, #0x0, eq	// eq = none
   8430c:	54001601 	b.ne	845cc <_svfprintf_r+0x140c>  // b.any
   84310:	910773f8 	add	x24, sp, #0x1dc
   84314:	52800007 	mov	w7, #0x0                   	// #0
   84318:	5280001b 	mov	w27, #0x0                   	// #0
   8431c:	17ffffe1 	b	842a0 <_svfprintf_r+0x10e0>
   84320:	2a1803eb 	mov	w11, w24
   84324:	2a1a03e7 	mov	w7, w26
   84328:	321c02e9 	orr	w9, w23, #0x10
   8432c:	b9409be0 	ldr	w0, [sp, #152]
   84330:	37280049 	tbnz	w9, #5, 84338 <_svfprintf_r+0x1178>
   84334:	36201a89 	tbz	w9, #4, 84684 <_svfprintf_r+0x14c4>
   84338:	37f83ea0 	tbnz	w0, #31, 84b0c <_svfprintf_r+0x194c>
   8433c:	f94043e0 	ldr	x0, [sp, #128]
   84340:	91003c01 	add	x1, x0, #0xf
   84344:	927df021 	and	x1, x1, #0xfffffffffffffff8
   84348:	f90043e1 	str	x1, [sp, #128]
   8434c:	f9400000 	ldr	x0, [x0]
   84350:	1215793a 	and	w26, w9, #0xfffffbff
   84354:	52800001 	mov	w1, #0x0                   	// #0
   84358:	17ffffc3 	b	84264 <_svfprintf_r+0x10a4>
   8435c:	39400328 	ldrb	w8, [x25]
   84360:	321d02f7 	orr	w23, w23, #0x8
   84364:	17fffc01 	b	83368 <_svfprintf_r+0x1a8>
   84368:	39400328 	ldrb	w8, [x25]
   8436c:	321b02f7 	orr	w23, w23, #0x20
   84370:	17fffbfe 	b	83368 <_svfprintf_r+0x1a8>
   84374:	b9409be0 	ldr	w0, [sp, #152]
   84378:	2a1703e9 	mov	w9, w23
   8437c:	2a1803eb 	mov	w11, w24
   84380:	2a1a03e7 	mov	w7, w26
   84384:	37f81be0 	tbnz	w0, #31, 84700 <_svfprintf_r+0x1540>
   84388:	f94043e0 	ldr	x0, [sp, #128]
   8438c:	91003c01 	add	x1, x0, #0xf
   84390:	927df021 	and	x1, x1, #0xfffffffffffffff8
   84394:	f90043e1 	str	x1, [sp, #128]
   84398:	f9400000 	ldr	x0, [x0]
   8439c:	528f0602 	mov	w2, #0x7830                	// #30768
   843a0:	b0000083 	adrp	x3, 95000 <pmu_event_descr+0x60>
   843a4:	321f013a 	orr	w26, w9, #0x2
   843a8:	9117a063 	add	x3, x3, #0x5e8
   843ac:	52800041 	mov	w1, #0x2                   	// #2
   843b0:	52800f08 	mov	w8, #0x78                  	// #120
   843b4:	f90063e3 	str	x3, [sp, #192]
   843b8:	790263e2 	strh	w2, [sp, #304]
   843bc:	17ffffaa 	b	84264 <_svfprintf_r+0x10a4>
   843c0:	b9409be0 	ldr	w0, [sp, #152]
   843c4:	2a1703e9 	mov	w9, w23
   843c8:	372801a9 	tbnz	w9, #5, 843fc <_svfprintf_r+0x123c>
   843cc:	37200189 	tbnz	w9, #4, 843fc <_svfprintf_r+0x123c>
   843d0:	373092c9 	tbnz	w9, #6, 85628 <_svfprintf_r+0x2468>
   843d4:	3648cc49 	tbz	w9, #9, 85d5c <_svfprintf_r+0x2b9c>
   843d8:	37f8e6c0 	tbnz	w0, #31, 860b0 <_svfprintf_r+0x2ef0>
   843dc:	f94043e0 	ldr	x0, [sp, #128]
   843e0:	91003c01 	add	x1, x0, #0xf
   843e4:	927df021 	and	x1, x1, #0xfffffffffffffff8
   843e8:	f90043e1 	str	x1, [sp, #128]
   843ec:	f9400000 	ldr	x0, [x0]
   843f0:	3941e3e1 	ldrb	w1, [sp, #120]
   843f4:	39000001 	strb	w1, [x0]
   843f8:	17fffba6 	b	83290 <_svfprintf_r+0xd0>
   843fc:	37f822a0 	tbnz	w0, #31, 84850 <_svfprintf_r+0x1690>
   84400:	f94043e0 	ldr	x0, [sp, #128]
   84404:	91003c01 	add	x1, x0, #0xf
   84408:	927df021 	and	x1, x1, #0xfffffffffffffff8
   8440c:	f90043e1 	str	x1, [sp, #128]
   84410:	f9400000 	ldr	x0, [x0]
   84414:	b9807be1 	ldrsw	x1, [sp, #120]
   84418:	f9000001 	str	x1, [x0]
   8441c:	17fffb9d 	b	83290 <_svfprintf_r+0xd0>
   84420:	39400328 	ldrb	w8, [x25]
   84424:	7101b11f 	cmp	w8, #0x6c
   84428:	54001f00 	b.eq	84808 <_svfprintf_r+0x1648>  // b.none
   8442c:	321c02f7 	orr	w23, w23, #0x10
   84430:	17fffbce 	b	83368 <_svfprintf_r+0x1a8>
   84434:	39400328 	ldrb	w8, [x25]
   84438:	7101a11f 	cmp	w8, #0x68
   8443c:	54001de0 	b.eq	847f8 <_svfprintf_r+0x1638>  // b.none
   84440:	321a02f7 	orr	w23, w23, #0x40
   84444:	17fffbc9 	b	83368 <_svfprintf_r+0x1a8>
   84448:	52800560 	mov	w0, #0x2b                  	// #43
   8444c:	39400328 	ldrb	w8, [x25]
   84450:	3904bfe0 	strb	w0, [sp, #303]
   84454:	17fffbc5 	b	83368 <_svfprintf_r+0x1a8>
   84458:	39400328 	ldrb	w8, [x25]
   8445c:	321902f7 	orr	w23, w23, #0x80
   84460:	17fffbc2 	b	83368 <_svfprintf_r+0x1a8>
   84464:	aa1903e1 	mov	x1, x25
   84468:	38401428 	ldrb	w8, [x1], #1
   8446c:	7100a91f 	cmp	w8, #0x2a
   84470:	5400eb40 	b.eq	861d8 <_svfprintf_r+0x3018>  // b.none
   84474:	5100c100 	sub	w0, w8, #0x30
   84478:	aa0103f9 	mov	x25, x1
   8447c:	5280001a 	mov	w26, #0x0                   	// #0
   84480:	7100241f 	cmp	w0, #0x9
   84484:	54ff7748 	b.hi	8336c <_svfprintf_r+0x1ac>  // b.pmore
   84488:	38401728 	ldrb	w8, [x25], #1
   8448c:	0b1a0b47 	add	w7, w26, w26, lsl #2
   84490:	0b07041a 	add	w26, w0, w7, lsl #1
   84494:	5100c100 	sub	w0, w8, #0x30
   84498:	7100241f 	cmp	w0, #0x9
   8449c:	54ffff69 	b.ls	84488 <_svfprintf_r+0x12c8>  // b.plast
   844a0:	17fffbb3 	b	8336c <_svfprintf_r+0x1ac>
   844a4:	b9409be0 	ldr	w0, [sp, #152]
   844a8:	37f81060 	tbnz	w0, #31, 846b4 <_svfprintf_r+0x14f4>
   844ac:	f94043e0 	ldr	x0, [sp, #128]
   844b0:	91002c00 	add	x0, x0, #0xb
   844b4:	927df000 	and	x0, x0, #0xfffffffffffffff8
   844b8:	f94043e1 	ldr	x1, [sp, #128]
   844bc:	b9400038 	ldr	w24, [x1]
   844c0:	37ffeaf8 	tbnz	w24, #31, 8421c <_svfprintf_r+0x105c>
   844c4:	39400328 	ldrb	w8, [x25]
   844c8:	f90043e0 	str	x0, [sp, #128]
   844cc:	17fffba7 	b	83368 <_svfprintf_r+0x1a8>
   844d0:	aa1303e0 	mov	x0, x19
   844d4:	940021df 	bl	8cc50 <_localeconv_r>
   844d8:	f9400400 	ldr	x0, [x0, #8]
   844dc:	f90077e0 	str	x0, [sp, #232]
   844e0:	97fff928 	bl	82980 <strlen>
   844e4:	aa0003e1 	mov	x1, x0
   844e8:	aa0103fb 	mov	x27, x1
   844ec:	aa1303e0 	mov	x0, x19
   844f0:	f90083e1 	str	x1, [sp, #256]
   844f4:	940021d7 	bl	8cc50 <_localeconv_r>
   844f8:	f9400800 	ldr	x0, [x0, #16]
   844fc:	f9007be0 	str	x0, [sp, #240]
   84500:	f100037f 	cmp	x27, #0x0
   84504:	fa401804 	ccmp	x0, #0x0, #0x4, ne	// ne = any
   84508:	54000ba0 	b.eq	8467c <_svfprintf_r+0x14bc>  // b.none
   8450c:	39400001 	ldrb	w1, [x0]
   84510:	321602e0 	orr	w0, w23, #0x400
   84514:	39400328 	ldrb	w8, [x25]
   84518:	7100003f 	cmp	w1, #0x0
   8451c:	1a971017 	csel	w23, w0, w23, ne	// ne = any
   84520:	17fffb92 	b	83368 <_svfprintf_r+0x1a8>
   84524:	39400328 	ldrb	w8, [x25]
   84528:	320002f7 	orr	w23, w23, #0x1
   8452c:	17fffb8f 	b	83368 <_svfprintf_r+0x1a8>
   84530:	3944bfe0 	ldrb	w0, [sp, #303]
   84534:	39400328 	ldrb	w8, [x25]
   84538:	35ff7180 	cbnz	w0, 83368 <_svfprintf_r+0x1a8>
   8453c:	52800400 	mov	w0, #0x20                  	// #32
   84540:	3904bfe0 	strb	w0, [sp, #303]
   84544:	17fffb89 	b	83368 <_svfprintf_r+0x1a8>
   84548:	2a0903fa 	mov	w26, w9
   8454c:	7100043f 	cmp	w1, #0x1
   84550:	54000400 	b.eq	845d0 <_svfprintf_r+0x1410>  // b.none
   84554:	910773ec 	add	x12, sp, #0x1dc
   84558:	aa0c03f8 	mov	x24, x12
   8455c:	7100083f 	cmp	w1, #0x2
   84560:	54000141 	b.ne	84588 <_svfprintf_r+0x13c8>  // b.any
   84564:	f94063e2 	ldr	x2, [sp, #192]
   84568:	92400c01 	and	x1, x0, #0xf
   8456c:	d344fc00 	lsr	x0, x0, #4
   84570:	38616841 	ldrb	w1, [x2, x1]
   84574:	381fff01 	strb	w1, [x24, #-1]!
   84578:	b5ffff80 	cbnz	x0, 84568 <_svfprintf_r+0x13a8>
   8457c:	4b18019b 	sub	w27, w12, w24
   84580:	2a1a03e9 	mov	w9, w26
   84584:	17ffff47 	b	842a0 <_svfprintf_r+0x10e0>
   84588:	12000801 	and	w1, w0, #0x7
   8458c:	aa1803e2 	mov	x2, x24
   84590:	1100c021 	add	w1, w1, #0x30
   84594:	381fff01 	strb	w1, [x24, #-1]!
   84598:	d343fc00 	lsr	x0, x0, #3
   8459c:	b5ffff60 	cbnz	x0, 84588 <_svfprintf_r+0x13c8>
   845a0:	7100c03f 	cmp	w1, #0x30
   845a4:	1a9f07e0 	cset	w0, ne	// ne = any
   845a8:	6a00035f 	tst	w26, w0
   845ac:	54fffe80 	b.eq	8457c <_svfprintf_r+0x13bc>  // b.none
   845b0:	d1000842 	sub	x2, x2, #0x2
   845b4:	52800600 	mov	w0, #0x30                  	// #48
   845b8:	2a1a03e9 	mov	w9, w26
   845bc:	4b02019b 	sub	w27, w12, w2
   845c0:	381ff300 	sturb	w0, [x24, #-1]
   845c4:	aa0203f8 	mov	x24, x2
   845c8:	17ffff36 	b	842a0 <_svfprintf_r+0x10e0>
   845cc:	2a0903fa 	mov	w26, w9
   845d0:	f100241f 	cmp	x0, #0x9
   845d4:	54004f88 	b.hi	84fc4 <_svfprintf_r+0x1e04>  // b.pmore
   845d8:	1100c000 	add	w0, w0, #0x30
   845dc:	2a1a03e9 	mov	w9, w26
   845e0:	91076ff8 	add	x24, sp, #0x1db
   845e4:	5280003b 	mov	w27, #0x1                   	// #1
   845e8:	39076fe0 	strb	w0, [sp, #475]
   845ec:	17ffff2d 	b	842a0 <_svfprintf_r+0x10e0>
   845f0:	910773f8 	add	x24, sp, #0x1dc
   845f4:	52800007 	mov	w7, #0x0                   	// #0
   845f8:	17ffff2a 	b	842a0 <_svfprintf_r+0x10e0>
   845fc:	cb0003e0 	neg	x0, x0
   84600:	2a0903fa 	mov	w26, w9
   84604:	528005a2 	mov	w2, #0x2d                  	// #45
   84608:	52800021 	mov	w1, #0x1                   	// #1
   8460c:	17ffff17 	b	84268 <_svfprintf_r+0x10a8>
   84610:	36077409 	tbz	w9, #0, 83490 <_svfprintf_r+0x2d0>
   84614:	17fffc17 	b	83670 <_svfprintf_r+0x4b0>
   84618:	36305689 	tbz	w9, #6, 850e8 <_svfprintf_r+0x1f28>
   8461c:	37f88820 	tbnz	w0, #31, 85720 <_svfprintf_r+0x2560>
   84620:	f94043e0 	ldr	x0, [sp, #128]
   84624:	91002c01 	add	x1, x0, #0xb
   84628:	927df021 	and	x1, x1, #0xfffffffffffffff8
   8462c:	f90043e1 	str	x1, [sp, #128]
   84630:	79800000 	ldrsh	x0, [x0]
   84634:	aa0003e1 	mov	x1, x0
   84638:	17ffff2f 	b	842f4 <_svfprintf_r+0x1134>
   8463c:	36305a1a 	tbz	w26, #6, 8517c <_svfprintf_r+0x1fbc>
   84640:	37f885c0 	tbnz	w0, #31, 856f8 <_svfprintf_r+0x2538>
   84644:	f94043e0 	ldr	x0, [sp, #128]
   84648:	91002c01 	add	x1, x0, #0xb
   8464c:	927df021 	and	x1, x1, #0xfffffffffffffff8
   84650:	f90043e1 	str	x1, [sp, #128]
   84654:	79400000 	ldrh	w0, [x0]
   84658:	52800021 	mov	w1, #0x1                   	// #1
   8465c:	17ffff02 	b	84264 <_svfprintf_r+0x10a4>
   84660:	37f87380 	tbnz	w0, #31, 854d0 <_svfprintf_r+0x2310>
   84664:	f94043e0 	ldr	x0, [sp, #128]
   84668:	91003c01 	add	x1, x0, #0xf
   8466c:	fd400008 	ldr	d8, [x0]
   84670:	927df021 	and	x1, x1, #0xfffffffffffffff8
   84674:	f90043e1 	str	x1, [sp, #128]
   84678:	17fffdc1 	b	83d7c <_svfprintf_r+0xbbc>
   8467c:	39400328 	ldrb	w8, [x25]
   84680:	17fffb3a 	b	83368 <_svfprintf_r+0x1a8>
   84684:	36305a29 	tbz	w9, #6, 851c8 <_svfprintf_r+0x2008>
   84688:	37f88600 	tbnz	w0, #31, 85748 <_svfprintf_r+0x2588>
   8468c:	f94043e0 	ldr	x0, [sp, #128]
   84690:	91002c01 	add	x1, x0, #0xb
   84694:	927df021 	and	x1, x1, #0xfffffffffffffff8
   84698:	79400000 	ldrh	w0, [x0]
   8469c:	f90043e1 	str	x1, [sp, #128]
   846a0:	17ffff2c 	b	84350 <_svfprintf_r+0x1190>
   846a4:	2a1703e9 	mov	w9, w23
   846a8:	2a1803eb 	mov	w11, w24
   846ac:	2a1a03e7 	mov	w7, w26
   846b0:	17ffff07 	b	842cc <_svfprintf_r+0x110c>
   846b4:	b9409be0 	ldr	w0, [sp, #152]
   846b8:	11002001 	add	w1, w0, #0x8
   846bc:	7100003f 	cmp	w1, #0x0
   846c0:	5400942d 	b.le	85944 <_svfprintf_r+0x2784>
   846c4:	f94043e0 	ldr	x0, [sp, #128]
   846c8:	b9009be1 	str	w1, [sp, #152]
   846cc:	91002c00 	add	x0, x0, #0xb
   846d0:	927df000 	and	x0, x0, #0xfffffffffffffff8
   846d4:	17ffff79 	b	844b8 <_svfprintf_r+0x12f8>
   846d8:	b9409be0 	ldr	w0, [sp, #152]
   846dc:	11002001 	add	w1, w0, #0x8
   846e0:	7100003f 	cmp	w1, #0x0
   846e4:	5400948d 	b.le	85974 <_svfprintf_r+0x27b4>
   846e8:	f94043e0 	ldr	x0, [sp, #128]
   846ec:	b9009be1 	str	w1, [sp, #152]
   846f0:	91003c02 	add	x2, x0, #0xf
   846f4:	927df041 	and	x1, x2, #0xfffffffffffffff8
   846f8:	f90043e1 	str	x1, [sp, #128]
   846fc:	17fffe7f 	b	840f8 <_svfprintf_r+0xf38>
   84700:	b9409be0 	ldr	w0, [sp, #152]
   84704:	11002001 	add	w1, w0, #0x8
   84708:	7100003f 	cmp	w1, #0x0
   8470c:	540092ad 	b.le	85960 <_svfprintf_r+0x27a0>
   84710:	f94043e0 	ldr	x0, [sp, #128]
   84714:	b9009be1 	str	w1, [sp, #152]
   84718:	91003c02 	add	x2, x0, #0xf
   8471c:	927df041 	and	x1, x2, #0xfffffffffffffff8
   84720:	f90043e1 	str	x1, [sp, #128]
   84724:	17ffff1d 	b	84398 <_svfprintf_r+0x11d8>
   84728:	b9409be0 	ldr	w0, [sp, #152]
   8472c:	37f88f80 	tbnz	w0, #31, 8591c <_svfprintf_r+0x275c>
   84730:	f94043e0 	ldr	x0, [sp, #128]
   84734:	91002c01 	add	x1, x0, #0xb
   84738:	927df021 	and	x1, x1, #0xfffffffffffffff8
   8473c:	f90043e1 	str	x1, [sp, #128]
   84740:	b9400000 	ldr	w0, [x0]
   84744:	52800023 	mov	w3, #0x1                   	// #1
   84748:	9105e3f7 	add	x23, sp, #0x178
   8474c:	2a0303fb 	mov	w27, w3
   84750:	3905e3e0 	strb	w0, [sp, #376]
   84754:	17fffeaa 	b	841fc <_svfprintf_r+0x103c>
   84758:	b94093e9 	ldr	w9, [sp, #144]
   8475c:	aa1903e4 	mov	x4, x25
   84760:	b9409fe3 	ldr	w3, [sp, #156]
   84764:	aa1a03f9 	mov	x25, x26
   84768:	2a1c03eb 	mov	w11, w28
   8476c:	2a1803fa 	mov	w26, w24
   84770:	93407f5a 	sxtw	x26, w26
   84774:	11000421 	add	w1, w1, #0x1
   84778:	8b1a0000 	add	x0, x0, x26
   8477c:	b9016be1 	str	w1, [sp, #360]
   84780:	f900bbe0 	str	x0, [sp, #368]
   84784:	f90000e4 	str	x4, [x7]
   84788:	f90004fa 	str	x26, [x7, #8]
   8478c:	71001c3f 	cmp	w1, #0x7
   84790:	54ff9fad 	b.le	83b84 <_svfprintf_r+0x9c4>
   84794:	910583e2 	add	x2, sp, #0x160
   84798:	aa1503e1 	mov	x1, x21
   8479c:	aa1303e0 	mov	x0, x19
   847a0:	b90093e9 	str	w9, [sp, #144]
   847a4:	29138feb 	stp	w11, w3, [sp, #156]
   847a8:	940030d6 	bl	90b00 <__ssprint_r>
   847ac:	35ff9820 	cbnz	w0, 83ab0 <_svfprintf_r+0x8f0>
   847b0:	f940bbe0 	ldr	x0, [sp, #368]
   847b4:	aa1603e7 	mov	x7, x22
   847b8:	b94093e9 	ldr	w9, [sp, #144]
   847bc:	29538feb 	ldp	w11, w3, [sp, #156]
   847c0:	b9416be1 	ldr	w1, [sp, #360]
   847c4:	17fffcf1 	b	83b88 <_svfprintf_r+0x9c8>
   847c8:	910583e2 	add	x2, sp, #0x160
   847cc:	aa1503e1 	mov	x1, x21
   847d0:	aa1303e0 	mov	x0, x19
   847d4:	b90093e9 	str	w9, [sp, #144]
   847d8:	29138feb 	stp	w11, w3, [sp, #156]
   847dc:	940030c9 	bl	90b00 <__ssprint_r>
   847e0:	35ff9680 	cbnz	w0, 83ab0 <_svfprintf_r+0x8f0>
   847e4:	f940bbe0 	ldr	x0, [sp, #368]
   847e8:	aa1603fc 	mov	x28, x22
   847ec:	b94093e9 	ldr	w9, [sp, #144]
   847f0:	29538feb 	ldp	w11, w3, [sp, #156]
   847f4:	17fffba9 	b	83698 <_svfprintf_r+0x4d8>
   847f8:	39400728 	ldrb	w8, [x25, #1]
   847fc:	321702f7 	orr	w23, w23, #0x200
   84800:	91000739 	add	x25, x25, #0x1
   84804:	17fffad9 	b	83368 <_svfprintf_r+0x1a8>
   84808:	39400728 	ldrb	w8, [x25, #1]
   8480c:	321b02f7 	orr	w23, w23, #0x20
   84810:	91000739 	add	x25, x25, #0x1
   84814:	17fffad5 	b	83368 <_svfprintf_r+0x1a8>
   84818:	aa1303e0 	mov	x0, x19
   8481c:	d2800801 	mov	x1, #0x40                  	// #64
   84820:	94001b58 	bl	8b580 <_malloc_r>
   84824:	f90002a0 	str	x0, [x21]
   84828:	f9000ea0 	str	x0, [x21, #24]
   8482c:	f9403fe9 	ldr	x9, [sp, #120]
   84830:	b400d500 	cbz	x0, 862d0 <_svfprintf_r+0x3110>
   84834:	a90363f7 	stp	x23, x24, [sp, #48]
   84838:	52800800 	mov	w0, #0x40                  	// #64
   8483c:	a9046bf9 	stp	x25, x26, [sp, #64]
   84840:	a90573fb 	stp	x27, x28, [sp, #80]
   84844:	6d0627e8 	stp	d8, d9, [sp, #96]
   84848:	b90022a0 	str	w0, [x21, #32]
   8484c:	17fffa80 	b	8324c <_svfprintf_r+0x8c>
   84850:	b9409be0 	ldr	w0, [sp, #152]
   84854:	11002001 	add	w1, w0, #0x8
   84858:	7100003f 	cmp	w1, #0x0
   8485c:	5400908d 	b.le	85a6c <_svfprintf_r+0x28ac>
   84860:	f94043e0 	ldr	x0, [sp, #128]
   84864:	b9009be1 	str	w1, [sp, #152]
   84868:	91003c02 	add	x2, x0, #0xf
   8486c:	927df041 	and	x1, x2, #0xfffffffffffffff8
   84870:	f90043e1 	str	x1, [sp, #128]
   84874:	17fffee7 	b	84410 <_svfprintf_r+0x1250>
   84878:	b0000084 	adrp	x4, 95000 <pmu_event_descr+0x60>
   8487c:	b9416be1 	ldr	w1, [sp, #360]
   84880:	911b8084 	add	x4, x4, #0x6e0
   84884:	7100437f 	cmp	w27, #0x10
   84888:	54005bad 	b.le	853fc <_svfprintf_r+0x223c>
   8488c:	2a1b03e5 	mov	w5, w27
   84890:	aa1c03e2 	mov	x2, x28
   84894:	aa1703fb 	mov	x27, x23
   84898:	aa1903fc 	mov	x28, x25
   8489c:	2a0903fa 	mov	w26, w9
   848a0:	2a0303f9 	mov	w25, w3
   848a4:	2a0503f7 	mov	w23, w5
   848a8:	d2800208 	mov	x8, #0x10                  	// #16
   848ac:	f9006ff8 	str	x24, [sp, #216]
   848b0:	aa0403f8 	mov	x24, x4
   848b4:	b900e3eb 	str	w11, [sp, #224]
   848b8:	14000004 	b	848c8 <_svfprintf_r+0x1708>
   848bc:	510042f7 	sub	w23, w23, #0x10
   848c0:	710042ff 	cmp	w23, #0x10
   848c4:	5400588d 	b.le	853d4 <_svfprintf_r+0x2214>
   848c8:	91004000 	add	x0, x0, #0x10
   848cc:	11000421 	add	w1, w1, #0x1
   848d0:	a9002058 	stp	x24, x8, [x2]
   848d4:	91004042 	add	x2, x2, #0x10
   848d8:	b9016be1 	str	w1, [sp, #360]
   848dc:	f900bbe0 	str	x0, [sp, #368]
   848e0:	71001c3f 	cmp	w1, #0x7
   848e4:	54fffecd 	b.le	848bc <_svfprintf_r+0x16fc>
   848e8:	910583e2 	add	x2, sp, #0x160
   848ec:	aa1503e1 	mov	x1, x21
   848f0:	aa1303e0 	mov	x0, x19
   848f4:	94003083 	bl	90b00 <__ssprint_r>
   848f8:	3500a2e0 	cbnz	w0, 85d54 <_svfprintf_r+0x2b94>
   848fc:	f940bbe0 	ldr	x0, [sp, #368]
   84900:	aa1603e2 	mov	x2, x22
   84904:	b9416be1 	ldr	w1, [sp, #360]
   84908:	d2800208 	mov	x8, #0x10                  	// #16
   8490c:	17ffffec 	b	848bc <_svfprintf_r+0x16fc>
   84910:	2a1703e9 	mov	w9, w23
   84914:	2a1803eb 	mov	w11, w24
   84918:	2a1a03e7 	mov	w7, w26
   8491c:	b0000080 	adrp	x0, 95000 <pmu_event_descr+0x60>
   84920:	91180000 	add	x0, x0, #0x600
   84924:	f90063e0 	str	x0, [sp, #192]
   84928:	b9409be0 	ldr	w0, [sp, #152]
   8492c:	37280b89 	tbnz	w9, #5, 84a9c <_svfprintf_r+0x18dc>
   84930:	37200b69 	tbnz	w9, #4, 84a9c <_svfprintf_r+0x18dc>
   84934:	36303f69 	tbz	w9, #6, 85120 <_svfprintf_r+0x1f60>
   84938:	37f871e0 	tbnz	w0, #31, 85774 <_svfprintf_r+0x25b4>
   8493c:	f94043e0 	ldr	x0, [sp, #128]
   84940:	91002c01 	add	x1, x0, #0xb
   84944:	927df021 	and	x1, x1, #0xfffffffffffffff8
   84948:	79400000 	ldrh	w0, [x0]
   8494c:	f90043e1 	str	x1, [sp, #128]
   84950:	14000059 	b	84ab4 <_svfprintf_r+0x18f4>
   84954:	2a1a03e7 	mov	w7, w26
   84958:	2a1803eb 	mov	w11, w24
   8495c:	2a1703fa 	mov	w26, w23
   84960:	17fffe37 	b	8423c <_svfprintf_r+0x107c>
   84964:	b0000080 	adrp	x0, 95000 <pmu_event_descr+0x60>
   84968:	2a1703e9 	mov	w9, w23
   8496c:	9117a000 	add	x0, x0, #0x5e8
   84970:	2a1803eb 	mov	w11, w24
   84974:	2a1a03e7 	mov	w7, w26
   84978:	f90063e0 	str	x0, [sp, #192]
   8497c:	17ffffeb 	b	84928 <_svfprintf_r+0x1768>
   84980:	2a1703e9 	mov	w9, w23
   84984:	2a1803eb 	mov	w11, w24
   84988:	2a1a03e7 	mov	w7, w26
   8498c:	17fffe68 	b	8432c <_svfprintf_r+0x116c>
   84990:	29538be1 	ldp	w1, w2, [sp, #156]
   84994:	7100005f 	cmp	w2, #0x0
   84998:	7a40d820 	ccmp	w1, #0x0, #0x0, le
   8499c:	5400078d 	b.le	84a8c <_svfprintf_r+0x18cc>
   849a0:	aa1c03e1 	mov	x1, x28
   849a4:	f90087f9 	str	x25, [sp, #264]
   849a8:	f9407bf9 	ldr	x25, [sp, #240]
   849ac:	b0000084 	adrp	x4, 95000 <pmu_event_descr+0x60>
   849b0:	f94083fc 	ldr	x28, [sp, #256]
   849b4:	911b8084 	add	x4, x4, #0x6e0
   849b8:	f9004bf7 	str	x23, [sp, #144]
   849bc:	2a0203f7 	mov	w23, w2
   849c0:	d280021b 	mov	x27, #0x10                  	// #16
   849c4:	b900dbe9 	str	w9, [sp, #216]
   849c8:	b900e3eb 	str	w11, [sp, #224]
   849cc:	b900fbe3 	str	w3, [sp, #248]
   849d0:	34000817 	cbz	w23, 84ad0 <_svfprintf_r+0x1910>
   849d4:	510006f7 	sub	w23, w23, #0x1
   849d8:	b9416be2 	ldr	w2, [sp, #360]
   849dc:	8b1c0000 	add	x0, x0, x28
   849e0:	f94077e3 	ldr	x3, [sp, #232]
   849e4:	11000442 	add	w2, w2, #0x1
   849e8:	a9007023 	stp	x3, x28, [x1]
   849ec:	91004021 	add	x1, x1, #0x10
   849f0:	b9016be2 	str	w2, [sp, #360]
   849f4:	f900bbe0 	str	x0, [sp, #368]
   849f8:	71001c5f 	cmp	w2, #0x7
   849fc:	540014cc 	b.gt	84c94 <_svfprintf_r+0x1ad4>
   84a00:	f9406be3 	ldr	x3, [sp, #208]
   84a04:	39400322 	ldrb	w2, [x25]
   84a08:	cb180063 	sub	x3, x3, x24
   84a0c:	6b03005f 	cmp	w2, w3
   84a10:	1a83b05a 	csel	w26, w2, w3, lt	// lt = tstop
   84a14:	7100035f 	cmp	w26, #0x0
   84a18:	5400018d 	b.le	84a48 <_svfprintf_r+0x1888>
   84a1c:	b9416be2 	ldr	w2, [sp, #360]
   84a20:	93407f49 	sxtw	x9, w26
   84a24:	8b090000 	add	x0, x0, x9
   84a28:	a9002438 	stp	x24, x9, [x1]
   84a2c:	11000442 	add	w2, w2, #0x1
   84a30:	b9016be2 	str	w2, [sp, #360]
   84a34:	f900bbe0 	str	x0, [sp, #368]
   84a38:	71001c5f 	cmp	w2, #0x7
   84a3c:	5400316c 	b.gt	85068 <_svfprintf_r+0x1ea8>
   84a40:	39400322 	ldrb	w2, [x25]
   84a44:	91004021 	add	x1, x1, #0x10
   84a48:	7100035f 	cmp	w26, #0x0
   84a4c:	1a9fa343 	csel	w3, w26, wzr, ge	// ge = tcont
   84a50:	4b03005a 	sub	w26, w2, w3
   84a54:	7100035f 	cmp	w26, #0x0
   84a58:	5400096c 	b.gt	84b84 <_svfprintf_r+0x19c4>
   84a5c:	b9409fe3 	ldr	w3, [sp, #156]
   84a60:	8b220318 	add	x24, x24, w2, uxtb
   84a64:	7100007f 	cmp	w3, #0x0
   84a68:	7a40dae0 	ccmp	w23, #0x0, #0x0, le
   84a6c:	54fffb2c 	b.gt	849d0 <_svfprintf_r+0x1810>
   84a70:	f9404bf7 	ldr	x23, [sp, #144]
   84a74:	f9007bf9 	str	x25, [sp, #240]
   84a78:	f94087f9 	ldr	x25, [sp, #264]
   84a7c:	aa0103fc 	mov	x28, x1
   84a80:	b940dbe9 	ldr	w9, [sp, #216]
   84a84:	b940e3eb 	ldr	w11, [sp, #224]
   84a88:	b940fbe3 	ldr	w3, [sp, #248]
   84a8c:	f9406be1 	ldr	x1, [sp, #208]
   84a90:	eb01031f 	cmp	x24, x1
   84a94:	9a819318 	csel	x24, x24, x1, ls	// ls = plast
   84a98:	17fffcf0 	b	83e58 <_svfprintf_r+0xc98>
   84a9c:	37f80240 	tbnz	w0, #31, 84ae4 <_svfprintf_r+0x1924>
   84aa0:	f94043e0 	ldr	x0, [sp, #128]
   84aa4:	91003c01 	add	x1, x0, #0xf
   84aa8:	927df021 	and	x1, x1, #0xfffffffffffffff8
   84aac:	f90043e1 	str	x1, [sp, #128]
   84ab0:	f9400000 	ldr	x0, [x0]
   84ab4:	f100001f 	cmp	x0, #0x0
   84ab8:	1a9f07e1 	cset	w1, ne	// ne = any
   84abc:	6a01013f 	tst	w9, w1
   84ac0:	54001a81 	b.ne	84e10 <_svfprintf_r+0x1c50>  // b.any
   84ac4:	1215793a 	and	w26, w9, #0xfffffbff
   84ac8:	52800041 	mov	w1, #0x2                   	// #2
   84acc:	17fffde6 	b	84264 <_svfprintf_r+0x10a4>
   84ad0:	b9409fe2 	ldr	w2, [sp, #156]
   84ad4:	d1000739 	sub	x25, x25, #0x1
   84ad8:	51000442 	sub	w2, w2, #0x1
   84adc:	b9009fe2 	str	w2, [sp, #156]
   84ae0:	17ffffbe 	b	849d8 <_svfprintf_r+0x1818>
   84ae4:	b9409be0 	ldr	w0, [sp, #152]
   84ae8:	11002001 	add	w1, w0, #0x8
   84aec:	7100003f 	cmp	w1, #0x0
   84af0:	540033cd 	b.le	85168 <_svfprintf_r+0x1fa8>
   84af4:	f94043e0 	ldr	x0, [sp, #128]
   84af8:	b9009be1 	str	w1, [sp, #152]
   84afc:	91003c02 	add	x2, x0, #0xf
   84b00:	927df041 	and	x1, x2, #0xfffffffffffffff8
   84b04:	f90043e1 	str	x1, [sp, #128]
   84b08:	17ffffea 	b	84ab0 <_svfprintf_r+0x18f0>
   84b0c:	b9409be0 	ldr	w0, [sp, #152]
   84b10:	11002001 	add	w1, w0, #0x8
   84b14:	7100003f 	cmp	w1, #0x0
   84b18:	54002fad 	b.le	8510c <_svfprintf_r+0x1f4c>
   84b1c:	f94043e0 	ldr	x0, [sp, #128]
   84b20:	b9009be1 	str	w1, [sp, #152]
   84b24:	91003c02 	add	x2, x0, #0xf
   84b28:	927df041 	and	x1, x2, #0xfffffffffffffff8
   84b2c:	f90043e1 	str	x1, [sp, #128]
   84b30:	17fffe07 	b	8434c <_svfprintf_r+0x118c>
   84b34:	b9409be0 	ldr	w0, [sp, #152]
   84b38:	11002001 	add	w1, w0, #0x8
   84b3c:	7100003f 	cmp	w1, #0x0
   84b40:	5400300d 	b.le	85140 <_svfprintf_r+0x1f80>
   84b44:	f94043e0 	ldr	x0, [sp, #128]
   84b48:	b9009be1 	str	w1, [sp, #152]
   84b4c:	91003c02 	add	x2, x0, #0xf
   84b50:	927df041 	and	x1, x2, #0xfffffffffffffff8
   84b54:	f90043e1 	str	x1, [sp, #128]
   84b58:	17fffde5 	b	842ec <_svfprintf_r+0x112c>
   84b5c:	b9409be0 	ldr	w0, [sp, #152]
   84b60:	11002001 	add	w1, w0, #0x8
   84b64:	7100003f 	cmp	w1, #0x0
   84b68:	54002f6d 	b.le	85154 <_svfprintf_r+0x1f94>
   84b6c:	f94043e0 	ldr	x0, [sp, #128]
   84b70:	b9009be1 	str	w1, [sp, #152]
   84b74:	91003c02 	add	x2, x0, #0xf
   84b78:	927df041 	and	x1, x2, #0xfffffffffffffff8
   84b7c:	f90043e1 	str	x1, [sp, #128]
   84b80:	17fffdb7 	b	8425c <_svfprintf_r+0x109c>
   84b84:	b0000089 	adrp	x9, 95000 <pmu_event_descr+0x60>
   84b88:	b9416be2 	ldr	w2, [sp, #360]
   84b8c:	911b8129 	add	x9, x9, #0x6e0
   84b90:	7100435f 	cmp	w26, #0x10
   84b94:	5400040d 	b.le	84c14 <_svfprintf_r+0x1a54>
   84b98:	b900a3f7 	str	w23, [sp, #160]
   84b9c:	2a1a03f7 	mov	w23, w26
   84ba0:	aa0403fa 	mov	x26, x4
   84ba4:	14000004 	b	84bb4 <_svfprintf_r+0x19f4>
   84ba8:	510042f7 	sub	w23, w23, #0x10
   84bac:	710042ff 	cmp	w23, #0x10
   84bb0:	540002cd 	b.le	84c08 <_svfprintf_r+0x1a48>
   84bb4:	91004000 	add	x0, x0, #0x10
   84bb8:	11000442 	add	w2, w2, #0x1
   84bbc:	a9006c24 	stp	x4, x27, [x1]
   84bc0:	91004021 	add	x1, x1, #0x10
   84bc4:	b9016be2 	str	w2, [sp, #360]
   84bc8:	f900bbe0 	str	x0, [sp, #368]
   84bcc:	71001c5f 	cmp	w2, #0x7
   84bd0:	54fffecd 	b.le	84ba8 <_svfprintf_r+0x19e8>
   84bd4:	910583e2 	add	x2, sp, #0x160
   84bd8:	aa1503e1 	mov	x1, x21
   84bdc:	aa1303e0 	mov	x0, x19
   84be0:	94002fc8 	bl	90b00 <__ssprint_r>
   84be4:	35006e80 	cbnz	w0, 859b4 <_svfprintf_r+0x27f4>
   84be8:	510042f7 	sub	w23, w23, #0x10
   84bec:	b0000083 	adrp	x3, 95000 <pmu_event_descr+0x60>
   84bf0:	f940bbe0 	ldr	x0, [sp, #368]
   84bf4:	aa1603e1 	mov	x1, x22
   84bf8:	b9416be2 	ldr	w2, [sp, #360]
   84bfc:	911b8064 	add	x4, x3, #0x6e0
   84c00:	710042ff 	cmp	w23, #0x10
   84c04:	54fffd8c 	b.gt	84bb4 <_svfprintf_r+0x19f4>
   84c08:	aa1a03e9 	mov	x9, x26
   84c0c:	2a1703fa 	mov	w26, w23
   84c10:	b940a3f7 	ldr	w23, [sp, #160]
   84c14:	93407f43 	sxtw	x3, w26
   84c18:	11000442 	add	w2, w2, #0x1
   84c1c:	8b030000 	add	x0, x0, x3
   84c20:	a9000c29 	stp	x9, x3, [x1]
   84c24:	b9016be2 	str	w2, [sp, #360]
   84c28:	f900bbe0 	str	x0, [sp, #368]
   84c2c:	71001c5f 	cmp	w2, #0x7
   84c30:	54006acc 	b.gt	85988 <_svfprintf_r+0x27c8>
   84c34:	39400322 	ldrb	w2, [x25]
   84c38:	91004021 	add	x1, x1, #0x10
   84c3c:	17ffff88 	b	84a5c <_svfprintf_r+0x189c>
   84c40:	910583e2 	add	x2, sp, #0x160
   84c44:	aa1503e1 	mov	x1, x21
   84c48:	aa1303e0 	mov	x0, x19
   84c4c:	b900d3f2 	str	w18, [sp, #208]
   84c50:	b900dbe8 	str	w8, [sp, #216]
   84c54:	b900e3e9 	str	w9, [sp, #224]
   84c58:	b900fbeb 	str	w11, [sp, #248]
   84c5c:	b9010be7 	str	w7, [sp, #264]
   84c60:	b9011be3 	str	w3, [sp, #280]
   84c64:	94002fa7 	bl	90b00 <__ssprint_r>
   84c68:	35ff7240 	cbnz	w0, 83ab0 <_svfprintf_r+0x8f0>
   84c6c:	f940bbe0 	ldr	x0, [sp, #368]
   84c70:	aa1603fc 	mov	x28, x22
   84c74:	3944bfe1 	ldrb	w1, [sp, #303]
   84c78:	b940d3f2 	ldr	w18, [sp, #208]
   84c7c:	b940dbe8 	ldr	w8, [sp, #216]
   84c80:	b940e3e9 	ldr	w9, [sp, #224]
   84c84:	b940fbeb 	ldr	w11, [sp, #248]
   84c88:	b9410be7 	ldr	w7, [sp, #264]
   84c8c:	b9411be3 	ldr	w3, [sp, #280]
   84c90:	17fff9d6 	b	833e8 <_svfprintf_r+0x228>
   84c94:	910583e2 	add	x2, sp, #0x160
   84c98:	aa1503e1 	mov	x1, x21
   84c9c:	aa1303e0 	mov	x0, x19
   84ca0:	94002f98 	bl	90b00 <__ssprint_r>
   84ca4:	35006880 	cbnz	w0, 859b4 <_svfprintf_r+0x27f4>
   84ca8:	f940bbe0 	ldr	x0, [sp, #368]
   84cac:	b0000082 	adrp	x2, 95000 <pmu_event_descr+0x60>
   84cb0:	aa1603e1 	mov	x1, x22
   84cb4:	911b8044 	add	x4, x2, #0x6e0
   84cb8:	17ffff52 	b	84a00 <_svfprintf_r+0x1840>
   84cbc:	1e682100 	fcmp	d8, d8
   84cc0:	54008d26 	b.vs	85e64 <_svfprintf_r+0x2ca4>
   84cc4:	121a791b 	and	w27, w8, #0xffffffdf
   84cc8:	7101077f 	cmp	w27, #0x41
   84ccc:	540028e1 	b.ne	851e8 <_svfprintf_r+0x2028>  // b.any
   84cd0:	52800b01 	mov	w1, #0x58                  	// #88
   84cd4:	7101851f 	cmp	w8, #0x61
   84cd8:	52800f00 	mov	w0, #0x78                  	// #120
   84cdc:	1a810000 	csel	w0, w0, w1, eq	// eq = none
   84ce0:	52800601 	mov	w1, #0x30                  	// #48
   84ce4:	3904c3e1 	strb	w1, [sp, #304]
   84ce8:	3904c7e0 	strb	w0, [sp, #305]
   84cec:	9105e3f8 	add	x24, sp, #0x178
   84cf0:	d2800017 	mov	x23, #0x0                   	// #0
   84cf4:	71018cff 	cmp	w7, #0x63
   84cf8:	5400572c 	b.gt	857dc <_svfprintf_r+0x261c>
   84cfc:	9e660101 	fmov	x1, d8
   84d00:	1e614100 	fneg	d0, d8
   84d04:	528005a2 	mov	w2, #0x2d                  	// #45
   84d08:	9104e3e0 	add	x0, sp, #0x138
   84d0c:	b90093e8 	str	w8, [sp, #144]
   84d10:	29139fe9 	stp	w9, w7, [sp, #156]
   84d14:	d360fc21 	lsr	x1, x1, #32
   84d18:	b900cbeb 	str	w11, [sp, #200]
   84d1c:	7100003f 	cmp	w1, #0x0
   84d20:	1a9fb041 	csel	w1, w2, wzr, lt	// lt = tstop
   84d24:	b900d3e1 	str	w1, [sp, #208]
   84d28:	1e68bc00 	fcsel	d0, d0, d8, lt	// lt = tstop
   84d2c:	940028e1 	bl	8f0b0 <frexp>
   84d30:	1e681001 	fmov	d1, #1.250000000000000000e-01
   84d34:	b94093e8 	ldr	w8, [sp, #144]
   84d38:	29539fe9 	ldp	w9, w7, [sp, #156]
   84d3c:	1e610801 	fmul	d1, d0, d1
   84d40:	b940cbeb 	ldr	w11, [sp, #200]
   84d44:	1e602028 	fcmp	d1, #0.0
   84d48:	540052c0 	b.eq	857a0 <_svfprintf_r+0x25e0>  // b.none
   84d4c:	2a0703e3 	mov	w3, w7
   84d50:	7101851f 	cmp	w8, #0x61
   84d54:	91000463 	add	x3, x3, #0x1
   84d58:	b0000080 	adrp	x0, 95000 <pmu_event_descr+0x60>
   84d5c:	b0000082 	adrp	x2, 95000 <pmu_event_descr+0x60>
   84d60:	91180000 	add	x0, x0, #0x600
   84d64:	9117a042 	add	x2, x2, #0x5e8
   84d68:	8b030303 	add	x3, x24, x3
   84d6c:	9a800042 	csel	x2, x2, x0, eq	// eq = none
   84d70:	1e661002 	fmov	d2, #1.600000000000000000e+01
   84d74:	aa1803e0 	mov	x0, x24
   84d78:	14000003 	b	84d84 <_svfprintf_r+0x1bc4>
   84d7c:	1e602028 	fcmp	d1, #0.0
   84d80:	54009360 	b.eq	85fec <_svfprintf_r+0x2e2c>  // b.none
   84d84:	1e620821 	fmul	d1, d1, d2
   84d88:	aa0003ec 	mov	x12, x0
   84d8c:	1e780021 	fcvtzs	w1, d1
   84d90:	1e620020 	scvtf	d0, w1
   84d94:	3861c844 	ldrb	w4, [x2, w1, sxtw]
   84d98:	38001404 	strb	w4, [x0], #1
   84d9c:	1e603821 	fsub	d1, d1, d0
   84da0:	eb00007f 	cmp	x3, x0
   84da4:	54fffec1 	b.ne	84d7c <_svfprintf_r+0x1bbc>  // b.any
   84da8:	12800003 	mov	w3, #0xffffffff            	// #-1
   84dac:	1e6c1000 	fmov	d0, #5.000000000000000000e-01
   84db0:	1e602030 	fcmpe	d1, d0
   84db4:	54007a0c 	b.gt	85cf4 <_svfprintf_r+0x2b34>
   84db8:	1e602020 	fcmp	d1, d0
   84dbc:	54000041 	b.ne	84dc4 <_svfprintf_r+0x1c04>  // b.any
   84dc0:	370079a1 	tbnz	w1, #0, 85cf4 <_svfprintf_r+0x2b34>
   84dc4:	11000461 	add	w1, w3, #0x1
   84dc8:	52800602 	mov	w2, #0x30                  	// #48
   84dcc:	8b21c001 	add	x1, x0, w1, sxtw
   84dd0:	37f87b83 	tbnz	w3, #31, 85d40 <_svfprintf_r+0x2b80>
   84dd4:	38001402 	strb	w2, [x0], #1
   84dd8:	eb00003f 	cmp	x1, x0
   84ddc:	54ffffc1 	b.ne	84dd4 <_svfprintf_r+0x1c14>  // b.any
   84de0:	b9413be0 	ldr	w0, [sp, #312]
   84de4:	b90093e0 	str	w0, [sp, #144]
   84de8:	4b180020 	sub	w0, w1, w24
   84dec:	b900cbe0 	str	w0, [sp, #200]
   84df0:	b94093e0 	ldr	w0, [sp, #144]
   84df4:	11003d01 	add	w1, w8, #0xf
   84df8:	321f0129 	orr	w9, w9, #0x2
   84dfc:	12001c21 	and	w1, w1, #0xff
   84e00:	51000400 	sub	w0, w0, #0x1
   84e04:	52800022 	mov	w2, #0x1                   	// #1
   84e08:	b9013be0 	str	w0, [sp, #312]
   84e0c:	14000135 	b	852e0 <_svfprintf_r+0x2120>
   84e10:	52800601 	mov	w1, #0x30                  	// #48
   84e14:	321f0129 	orr	w9, w9, #0x2
   84e18:	3904c3e1 	strb	w1, [sp, #304]
   84e1c:	3904c7e8 	strb	w8, [sp, #305]
   84e20:	17ffff29 	b	84ac4 <_svfprintf_r+0x1904>
   84e24:	910583e2 	add	x2, sp, #0x160
   84e28:	aa1503e1 	mov	x1, x21
   84e2c:	aa1303e0 	mov	x0, x19
   84e30:	b90093e9 	str	w9, [sp, #144]
   84e34:	29138feb 	stp	w11, w3, [sp, #156]
   84e38:	94002f32 	bl	90b00 <__ssprint_r>
   84e3c:	35ff63a0 	cbnz	w0, 83ab0 <_svfprintf_r+0x8f0>
   84e40:	f940bbe0 	ldr	x0, [sp, #368]
   84e44:	aa1603fc 	mov	x28, x22
   84e48:	b94093e9 	ldr	w9, [sp, #144]
   84e4c:	29538feb 	ldp	w11, w3, [sp, #156]
   84e50:	17fffa04 	b	83660 <_svfprintf_r+0x4a0>
   84e54:	910543e0 	add	x0, sp, #0x150
   84e58:	d2800102 	mov	x2, #0x8                   	// #8
   84e5c:	52800001 	mov	w1, #0x0                   	// #0
   84e60:	b90093e8 	str	w8, [sp, #144]
   84e64:	2913afe9 	stp	w9, w11, [sp, #156]
   84e68:	b900d3e7 	str	w7, [sp, #208]
   84e6c:	f900aff8 	str	x24, [sp, #344]
   84e70:	940021d4 	bl	8d5c0 <memset>
   84e74:	b940d3e7 	ldr	w7, [sp, #208]
   84e78:	b94093e8 	ldr	w8, [sp, #144]
   84e7c:	2953afe9 	ldp	w9, w11, [sp, #156]
   84e80:	310004ff 	cmn	w7, #0x1
   84e84:	54003000 	b.eq	85484 <_svfprintf_r+0x22c4>  // b.none
   84e88:	aa1903e0 	mov	x0, x25
   84e8c:	5280001b 	mov	w27, #0x0                   	// #0
   84e90:	aa1503f9 	mov	x25, x21
   84e94:	2a0703fa 	mov	w26, w7
   84e98:	2a1b03f5 	mov	w21, w27
   84e9c:	d2800017 	mov	x23, #0x0                   	// #0
   84ea0:	aa0003fb 	mov	x27, x0
   84ea4:	b90093e8 	str	w8, [sp, #144]
   84ea8:	2913afe9 	stp	w9, w11, [sp, #156]
   84eac:	1400000d 	b	84ee0 <_svfprintf_r+0x1d20>
   84eb0:	910543e3 	add	x3, sp, #0x150
   84eb4:	9105e3e1 	add	x1, sp, #0x178
   84eb8:	aa1303e0 	mov	x0, x19
   84ebc:	94001bbd 	bl	8bdb0 <_wcrtomb_r>
   84ec0:	3100041f 	cmn	w0, #0x1
   84ec4:	54006e80 	b.eq	85c94 <_svfprintf_r+0x2ad4>  // b.none
   84ec8:	0b0002a0 	add	w0, w21, w0
   84ecc:	6b1a001f 	cmp	w0, w26
   84ed0:	540000ec 	b.gt	84eec <_svfprintf_r+0x1d2c>
   84ed4:	910012f7 	add	x23, x23, #0x4
   84ed8:	54008b80 	b.eq	86048 <_svfprintf_r+0x2e88>  // b.none
   84edc:	2a0003f5 	mov	w21, w0
   84ee0:	f940afe0 	ldr	x0, [sp, #344]
   84ee4:	b8776802 	ldr	w2, [x0, x23]
   84ee8:	35fffe42 	cbnz	w2, 84eb0 <_svfprintf_r+0x1cf0>
   84eec:	aa1b03e0 	mov	x0, x27
   84ef0:	b94093e8 	ldr	w8, [sp, #144]
   84ef4:	2953afe9 	ldp	w9, w11, [sp, #156]
   84ef8:	2a1503fb 	mov	w27, w21
   84efc:	aa1903f5 	mov	x21, x25
   84f00:	aa0003f9 	mov	x25, x0
   84f04:	3400317b 	cbz	w27, 85530 <_svfprintf_r+0x2370>
   84f08:	71018f7f 	cmp	w27, #0x63
   84f0c:	5400450c 	b.gt	857ac <_svfprintf_r+0x25ec>
   84f10:	9105e3f8 	add	x24, sp, #0x178
   84f14:	d2800017 	mov	x23, #0x0                   	// #0
   84f18:	93407f7a 	sxtw	x26, w27
   84f1c:	d2800102 	mov	x2, #0x8                   	// #8
   84f20:	52800001 	mov	w1, #0x0                   	// #0
   84f24:	910543e0 	add	x0, sp, #0x150
   84f28:	b90093e8 	str	w8, [sp, #144]
   84f2c:	2913afe9 	stp	w9, w11, [sp, #156]
   84f30:	940021a4 	bl	8d5c0 <memset>
   84f34:	910543e4 	add	x4, sp, #0x150
   84f38:	aa1a03e3 	mov	x3, x26
   84f3c:	910563e2 	add	x2, sp, #0x158
   84f40:	aa1803e1 	mov	x1, x24
   84f44:	aa1303e0 	mov	x0, x19
   84f48:	9400221e 	bl	8d7c0 <_wcsrtombs_r>
   84f4c:	b94093e8 	ldr	w8, [sp, #144]
   84f50:	eb00035f 	cmp	x26, x0
   84f54:	2953afe9 	ldp	w9, w11, [sp, #156]
   84f58:	54009c21 	b.ne	862dc <_svfprintf_r+0x311c>  // b.any
   84f5c:	383bcb1f 	strb	wzr, [x24, w27, sxtw]
   84f60:	7100037f 	cmp	w27, #0x0
   84f64:	b90093ff 	str	wzr, [sp, #144]
   84f68:	1a9fa363 	csel	w3, w27, wzr, ge	// ge = tcont
   84f6c:	3944bfe1 	ldrb	w1, [sp, #303]
   84f70:	52800007 	mov	w7, #0x0                   	// #0
   84f74:	2913ffff 	stp	wzr, wzr, [sp, #156]
   84f78:	34ff2241 	cbz	w1, 833c0 <_svfprintf_r+0x200>
   84f7c:	17fffb97 	b	83dd8 <_svfprintf_r+0xc18>
   84f80:	b94093e9 	ldr	w9, [sp, #144]
   84f84:	2a1a03e3 	mov	w3, w26
   84f88:	b9409feb 	ldr	w11, [sp, #156]
   84f8c:	aa1903e4 	mov	x4, x25
   84f90:	2a1803fa 	mov	w26, w24
   84f94:	aa1c03f9 	mov	x25, x28
   84f98:	aa0203fc 	mov	x28, x2
   84f9c:	93407f5a 	sxtw	x26, w26
   84fa0:	11000421 	add	w1, w1, #0x1
   84fa4:	8b1a0000 	add	x0, x0, x26
   84fa8:	b9016be1 	str	w1, [sp, #360]
   84fac:	f900bbe0 	str	x0, [sp, #368]
   84fb0:	a9006b84 	stp	x4, x26, [x28]
   84fb4:	71001c3f 	cmp	w1, #0x7
   84fb8:	54ff4a8c 	b.gt	83908 <_svfprintf_r+0x748>
   84fbc:	9100439c 	add	x28, x28, #0x10
   84fc0:	17fff934 	b	83490 <_svfprintf_r+0x2d0>
   84fc4:	12160343 	and	w3, w26, #0x400
   84fc8:	910773ec 	add	x12, sp, #0x1dc
   84fcc:	b202e7fb 	mov	x27, #0xcccccccccccccccc    	// #-3689348814741910324
   84fd0:	aa1903e4 	mov	x4, x25
   84fd4:	aa0c03e2 	mov	x2, x12
   84fd8:	aa1303f9 	mov	x25, x19
   84fdc:	52800005 	mov	w5, #0x0                   	// #0
   84fe0:	2a0303f3 	mov	w19, w3
   84fe4:	f29999bb 	movk	x27, #0xcccd
   84fe8:	aa1503e3 	mov	x3, x21
   84fec:	f9407bf5 	ldr	x21, [sp, #240]
   84ff0:	14000007 	b	8500c <_svfprintf_r+0x1e4c>
   84ff4:	9bdb7c17 	umulh	x23, x0, x27
   84ff8:	d343fef7 	lsr	x23, x23, #3
   84ffc:	f100241f 	cmp	x0, #0x9
   85000:	54000249 	b.ls	85048 <_svfprintf_r+0x1e88>  // b.plast
   85004:	aa1703e0 	mov	x0, x23
   85008:	aa1803e2 	mov	x2, x24
   8500c:	9bdb7c17 	umulh	x23, x0, x27
   85010:	110004a5 	add	w5, w5, #0x1
   85014:	d1000458 	sub	x24, x2, #0x1
   85018:	d343fef7 	lsr	x23, x23, #3
   8501c:	8b170ae1 	add	x1, x23, x23, lsl #2
   85020:	cb010401 	sub	x1, x0, x1, lsl #1
   85024:	1100c021 	add	w1, w1, #0x30
   85028:	381ff041 	sturb	w1, [x2, #-1]
   8502c:	34fffe53 	cbz	w19, 84ff4 <_svfprintf_r+0x1e34>
   85030:	394002a1 	ldrb	w1, [x21]
   85034:	7103fc3f 	cmp	w1, #0xff
   85038:	7a451020 	ccmp	w1, w5, #0x0, ne	// ne = any
   8503c:	54fffdc1 	b.ne	84ff4 <_svfprintf_r+0x1e34>  // b.any
   85040:	f100241f 	cmp	x0, #0x9
   85044:	54004d68 	b.hi	859f0 <_svfprintf_r+0x2830>  // b.pmore
   85048:	aa1903f3 	mov	x19, x25
   8504c:	4b18019b 	sub	w27, w12, w24
   85050:	aa0403f9 	mov	x25, x4
   85054:	2a1a03e9 	mov	w9, w26
   85058:	b900cbe5 	str	w5, [sp, #200]
   8505c:	f9007bf5 	str	x21, [sp, #240]
   85060:	aa0303f5 	mov	x21, x3
   85064:	17fffc8f 	b	842a0 <_svfprintf_r+0x10e0>
   85068:	910583e2 	add	x2, sp, #0x160
   8506c:	aa1503e1 	mov	x1, x21
   85070:	aa1303e0 	mov	x0, x19
   85074:	94002ea3 	bl	90b00 <__ssprint_r>
   85078:	350049e0 	cbnz	w0, 859b4 <_svfprintf_r+0x27f4>
   8507c:	f940bbe0 	ldr	x0, [sp, #368]
   85080:	90000083 	adrp	x3, 95000 <pmu_event_descr+0x60>
   85084:	39400322 	ldrb	w2, [x25]
   85088:	aa1603e1 	mov	x1, x22
   8508c:	911b8064 	add	x4, x3, #0x6e0
   85090:	17fffe6e 	b	84a48 <_svfprintf_r+0x1888>
   85094:	710018ff 	cmp	w7, #0x6
   85098:	528000c3 	mov	w3, #0x6                   	// #6
   8509c:	1a8390e3 	csel	w3, w7, w3, ls	// ls = plast
   850a0:	90000085 	adrp	x5, 95000 <pmu_event_descr+0x60>
   850a4:	2a0303fb 	mov	w27, w3
   850a8:	911860b8 	add	x24, x5, #0x618
   850ac:	d2800017 	mov	x23, #0x0                   	// #0
   850b0:	52800001 	mov	w1, #0x0                   	// #0
   850b4:	52800007 	mov	w7, #0x0                   	// #0
   850b8:	b90093ff 	str	wzr, [sp, #144]
   850bc:	2913ffff 	stp	wzr, wzr, [sp, #156]
   850c0:	17fff8c0 	b	833c0 <_svfprintf_r+0x200>
   850c4:	f940bbe0 	ldr	x0, [sp, #368]
   850c8:	b4ff4fc0 	cbz	x0, 83ac0 <_svfprintf_r+0x900>
   850cc:	aa1303e0 	mov	x0, x19
   850d0:	910583e2 	add	x2, sp, #0x160
   850d4:	aa1503e1 	mov	x1, x21
   850d8:	94002e8a 	bl	90b00 <__ssprint_r>
   850dc:	794022a0 	ldrh	w0, [x21, #16]
   850e0:	121a0000 	and	w0, w0, #0x40
   850e4:	17fffa79 	b	83ac8 <_svfprintf_r+0x908>
   850e8:	36482b29 	tbz	w9, #9, 8564c <_svfprintf_r+0x248c>
   850ec:	37f876c0 	tbnz	w0, #31, 85fc4 <_svfprintf_r+0x2e04>
   850f0:	f94043e0 	ldr	x0, [sp, #128]
   850f4:	91002c01 	add	x1, x0, #0xb
   850f8:	927df021 	and	x1, x1, #0xfffffffffffffff8
   850fc:	f90043e1 	str	x1, [sp, #128]
   85100:	39800000 	ldrsb	x0, [x0]
   85104:	aa0003e1 	mov	x1, x0
   85108:	17fffc7b 	b	842f4 <_svfprintf_r+0x1134>
   8510c:	f94057e2 	ldr	x2, [sp, #168]
   85110:	b9409be0 	ldr	w0, [sp, #152]
   85114:	b9009be1 	str	w1, [sp, #152]
   85118:	8b20c040 	add	x0, x2, w0, sxtw
   8511c:	17fffc8c 	b	8434c <_svfprintf_r+0x118c>
   85120:	36482b49 	tbz	w9, #9, 85688 <_svfprintf_r+0x24c8>
   85124:	37f86d00 	tbnz	w0, #31, 85ec4 <_svfprintf_r+0x2d04>
   85128:	f94043e0 	ldr	x0, [sp, #128]
   8512c:	91002c01 	add	x1, x0, #0xb
   85130:	927df021 	and	x1, x1, #0xfffffffffffffff8
   85134:	39400000 	ldrb	w0, [x0]
   85138:	f90043e1 	str	x1, [sp, #128]
   8513c:	17fffe5e 	b	84ab4 <_svfprintf_r+0x18f4>
   85140:	f94057e2 	ldr	x2, [sp, #168]
   85144:	b9409be0 	ldr	w0, [sp, #152]
   85148:	b9009be1 	str	w1, [sp, #152]
   8514c:	8b20c040 	add	x0, x2, w0, sxtw
   85150:	17fffc67 	b	842ec <_svfprintf_r+0x112c>
   85154:	f94057e2 	ldr	x2, [sp, #168]
   85158:	b9409be0 	ldr	w0, [sp, #152]
   8515c:	b9009be1 	str	w1, [sp, #152]
   85160:	8b20c040 	add	x0, x2, w0, sxtw
   85164:	17fffc3e 	b	8425c <_svfprintf_r+0x109c>
   85168:	f94057e2 	ldr	x2, [sp, #168]
   8516c:	b9409be0 	ldr	w0, [sp, #152]
   85170:	b9009be1 	str	w1, [sp, #152]
   85174:	8b20c040 	add	x0, x2, w0, sxtw
   85178:	17fffe4e 	b	84ab0 <_svfprintf_r+0x18f0>
   8517c:	3648247a 	tbz	w26, #9, 85608 <_svfprintf_r+0x2448>
   85180:	37f873c0 	tbnz	w0, #31, 85ff8 <_svfprintf_r+0x2e38>
   85184:	f94043e0 	ldr	x0, [sp, #128]
   85188:	91002c01 	add	x1, x0, #0xb
   8518c:	927df021 	and	x1, x1, #0xfffffffffffffff8
   85190:	f90043e1 	str	x1, [sp, #128]
   85194:	39400000 	ldrb	w0, [x0]
   85198:	52800021 	mov	w1, #0x1                   	// #1
   8519c:	17fffc32 	b	84264 <_svfprintf_r+0x10a4>
   851a0:	b9409be0 	ldr	w0, [sp, #152]
   851a4:	11002001 	add	w1, w0, #0x8
   851a8:	7100003f 	cmp	w1, #0x0
   851ac:	540027cd 	b.le	856a4 <_svfprintf_r+0x24e4>
   851b0:	f94043e0 	ldr	x0, [sp, #128]
   851b4:	b9009be1 	str	w1, [sp, #152]
   851b8:	91002c02 	add	x2, x0, #0xb
   851bc:	927df041 	and	x1, x2, #0xfffffffffffffff8
   851c0:	f90043e1 	str	x1, [sp, #128]
   851c4:	17fffbff 	b	841c0 <_svfprintf_r+0x1000>
   851c8:	36482529 	tbz	w9, #9, 8566c <_svfprintf_r+0x24ac>
   851cc:	37f86a20 	tbnz	w0, #31, 85f10 <_svfprintf_r+0x2d50>
   851d0:	f94043e0 	ldr	x0, [sp, #128]
   851d4:	91002c01 	add	x1, x0, #0xb
   851d8:	927df021 	and	x1, x1, #0xfffffffffffffff8
   851dc:	39400000 	ldrb	w0, [x0]
   851e0:	f90043e1 	str	x1, [sp, #128]
   851e4:	17fffc5b 	b	84350 <_svfprintf_r+0x1190>
   851e8:	310004ff 	cmn	w7, #0x1
   851ec:	54003200 	b.eq	8582c <_svfprintf_r+0x266c>  // b.none
   851f0:	71011f7f 	cmp	w27, #0x47
   851f4:	7a4008e0 	ccmp	w7, #0x0, #0x0, eq	// eq = none
   851f8:	1a9f14e7 	csinc	w7, w7, wzr, ne	// ne = any
   851fc:	9e660100 	fmov	x0, d8
   85200:	32180137 	orr	w23, w9, #0x100
   85204:	d360fc00 	lsr	x0, x0, #32
   85208:	37f87380 	tbnz	w0, #31, 86078 <_svfprintf_r+0x2eb8>
   8520c:	1e604109 	fmov	d9, d8
   85210:	b900d3ff 	str	wzr, [sp, #208]
   85214:	71011b7f 	cmp	w27, #0x46
   85218:	540034c0 	b.eq	858b0 <_svfprintf_r+0x26f0>  // b.none
   8521c:	7101177f 	cmp	w27, #0x45
   85220:	54004b21 	b.ne	85b84 <_svfprintf_r+0x29c4>  // b.any
   85224:	1e604120 	fmov	d0, d9
   85228:	110004e0 	add	w0, w7, #0x1
   8522c:	2a0003fa 	mov	w26, w0
   85230:	2a0003e2 	mov	w2, w0
   85234:	910563e5 	add	x5, sp, #0x158
   85238:	910543e4 	add	x4, sp, #0x150
   8523c:	9104e3e3 	add	x3, sp, #0x138
   85240:	aa1303e0 	mov	x0, x19
   85244:	52800041 	mov	w1, #0x2                   	// #2
   85248:	b90093e7 	str	w7, [sp, #144]
   8524c:	2913a7e8 	stp	w8, w9, [sp, #156]
   85250:	b900cbfa 	str	w26, [sp, #200]
   85254:	b900dbeb 	str	w11, [sp, #216]
   85258:	940021d6 	bl	8d9b0 <_dtoa_r>
   8525c:	1e602128 	fcmp	d9, #0.0
   85260:	b94093e7 	ldr	w7, [sp, #144]
   85264:	2953a7e8 	ldp	w8, w9, [sp, #156]
   85268:	aa0003f8 	mov	x24, x0
   8526c:	b940dbeb 	ldr	w11, [sp, #216]
   85270:	8b3ac002 	add	x2, x0, w26, sxtw
   85274:	540074a0 	b.eq	86108 <_svfprintf_r+0x2f48>  // b.none
   85278:	f940afe0 	ldr	x0, [sp, #344]
   8527c:	eb02001f 	cmp	x0, x2
   85280:	54000102 	b.cs	852a0 <_svfprintf_r+0x20e0>  // b.hs, b.nlast
   85284:	52800603 	mov	w3, #0x30                  	// #48
   85288:	91000401 	add	x1, x0, #0x1
   8528c:	f900afe1 	str	x1, [sp, #344]
   85290:	39000003 	strb	w3, [x0]
   85294:	f940afe0 	ldr	x0, [sp, #344]
   85298:	eb02001f 	cmp	x0, x2
   8529c:	54ffff63 	b.cc	85288 <_svfprintf_r+0x20c8>  // b.lo, b.ul, b.last
   852a0:	b9413be1 	ldr	w1, [sp, #312]
   852a4:	cb180000 	sub	x0, x0, x24
   852a8:	b90093e1 	str	w1, [sp, #144]
   852ac:	b900cbe0 	str	w0, [sp, #200]
   852b0:	71011f7f 	cmp	w27, #0x47
   852b4:	540071a1 	b.ne	860e8 <_svfprintf_r+0x2f28>  // b.any
   852b8:	b94093e1 	ldr	w1, [sp, #144]
   852bc:	6b07003f 	cmp	w1, w7
   852c0:	3a43d821 	ccmn	w1, #0x3, #0x1, le
   852c4:	54002cea 	b.ge	85860 <_svfprintf_r+0x26a0>  // b.tcont
   852c8:	51000908 	sub	w8, w8, #0x2
   852cc:	51000420 	sub	w0, w1, #0x1
   852d0:	12001d01 	and	w1, w8, #0xff
   852d4:	52800002 	mov	w2, #0x0                   	// #0
   852d8:	d2800017 	mov	x23, #0x0                   	// #0
   852dc:	b9013be0 	str	w0, [sp, #312]
   852e0:	390503e1 	strb	w1, [sp, #320]
   852e4:	52800561 	mov	w1, #0x2b                  	// #43
   852e8:	36f800a0 	tbz	w0, #31, 852fc <_svfprintf_r+0x213c>
   852ec:	b94093e1 	ldr	w1, [sp, #144]
   852f0:	52800020 	mov	w0, #0x1                   	// #1
   852f4:	4b010000 	sub	w0, w0, w1
   852f8:	528005a1 	mov	w1, #0x2d                  	// #45
   852fc:	390507e1 	strb	w1, [sp, #321]
   85300:	7100241f 	cmp	w0, #0x9
   85304:	54004b2d 	b.le	85c68 <_svfprintf_r+0x2aa8>
   85308:	91057fec 	add	x12, sp, #0x15f
   8530c:	529999ad 	mov	w13, #0xcccd                	// #52429
   85310:	aa0c03e4 	mov	x4, x12
   85314:	72b9998d 	movk	w13, #0xcccc, lsl #16
   85318:	9bad7c02 	umull	x2, w0, w13
   8531c:	aa0403e3 	mov	x3, x4
   85320:	2a0003e5 	mov	w5, w0
   85324:	d1000484 	sub	x4, x4, #0x1
   85328:	d363fc42 	lsr	x2, x2, #35
   8532c:	0b020841 	add	w1, w2, w2, lsl #2
   85330:	4b010401 	sub	w1, w0, w1, lsl #1
   85334:	2a0203e0 	mov	w0, w2
   85338:	1100c021 	add	w1, w1, #0x30
   8533c:	381ff061 	sturb	w1, [x3, #-1]
   85340:	71018cbf 	cmp	w5, #0x63
   85344:	54fffeac 	b.gt	85318 <_svfprintf_r+0x2158>
   85348:	1100c040 	add	w0, w2, #0x30
   8534c:	381ff080 	sturb	w0, [x4, #-1]
   85350:	d1000860 	sub	x0, x3, #0x2
   85354:	eb0c001f 	cmp	x0, x12
   85358:	540078a2 	b.cs	8626c <_svfprintf_r+0x30ac>  // b.hs, b.nlast
   8535c:	91050be1 	add	x1, sp, #0x142
   85360:	38401402 	ldrb	w2, [x0], #1
   85364:	38001422 	strb	w2, [x1], #1
   85368:	eb0c001f 	cmp	x0, x12
   8536c:	54ffffa1 	b.ne	85360 <_svfprintf_r+0x21a0>  // b.any
   85370:	910587e0 	add	x0, sp, #0x161
   85374:	91050be2 	add	x2, sp, #0x142
   85378:	cb030000 	sub	x0, x0, x3
   8537c:	910503e1 	add	x1, sp, #0x140
   85380:	8b000040 	add	x0, x2, x0
   85384:	4b010000 	sub	w0, w0, w1
   85388:	b900cfe0 	str	w0, [sp, #204]
   8538c:	295907e0 	ldp	w0, w1, [sp, #200]
   85390:	0b00003b 	add	w27, w1, w0
   85394:	7100041f 	cmp	w0, #0x1
   85398:	5400494d 	b.le	85cc0 <_svfprintf_r+0x2b00>
   8539c:	b940b3e0 	ldr	w0, [sp, #176]
   853a0:	0b00037b 	add	w27, w27, w0
   853a4:	1215792a 	and	w10, w9, #0xfffffbff
   853a8:	7100037f 	cmp	w27, #0x0
   853ac:	32180149 	orr	w9, w10, #0x100
   853b0:	1a9fa363 	csel	w3, w27, wzr, ge	// ge = tcont
   853b4:	b90093ff 	str	wzr, [sp, #144]
   853b8:	2913ffff 	stp	wzr, wzr, [sp, #156]
   853bc:	b940d3e0 	ldr	w0, [sp, #208]
   853c0:	35002440 	cbnz	w0, 85848 <_svfprintf_r+0x2688>
   853c4:	3944bfe1 	ldrb	w1, [sp, #303]
   853c8:	52800007 	mov	w7, #0x0                   	// #0
   853cc:	34feffa1 	cbz	w1, 833c0 <_svfprintf_r+0x200>
   853d0:	17fffa82 	b	83dd8 <_svfprintf_r+0xc18>
   853d4:	2a1703e5 	mov	w5, w23
   853d8:	aa1803e4 	mov	x4, x24
   853dc:	f9406ff8 	ldr	x24, [sp, #216]
   853e0:	2a1903e3 	mov	w3, w25
   853e4:	b940e3eb 	ldr	w11, [sp, #224]
   853e8:	aa1b03f7 	mov	x23, x27
   853ec:	aa1c03f9 	mov	x25, x28
   853f0:	2a1a03e9 	mov	w9, w26
   853f4:	aa0203fc 	mov	x28, x2
   853f8:	2a0503fb 	mov	w27, w5
   853fc:	93407f67 	sxtw	x7, w27
   85400:	11000421 	add	w1, w1, #0x1
   85404:	8b070000 	add	x0, x0, x7
   85408:	a9001f84 	stp	x4, x7, [x28]
   8540c:	9100439c 	add	x28, x28, #0x10
   85410:	b9016be1 	str	w1, [sp, #360]
   85414:	f900bbe0 	str	x0, [sp, #368]
   85418:	71001c3f 	cmp	w1, #0x7
   8541c:	54ff518d 	b.le	83e4c <_svfprintf_r+0xc8c>
   85420:	910583e2 	add	x2, sp, #0x160
   85424:	aa1503e1 	mov	x1, x21
   85428:	aa1303e0 	mov	x0, x19
   8542c:	b900dbe9 	str	w9, [sp, #216]
   85430:	b900e3eb 	str	w11, [sp, #224]
   85434:	b900fbe3 	str	w3, [sp, #248]
   85438:	94002db2 	bl	90b00 <__ssprint_r>
   8543c:	35ff33a0 	cbnz	w0, 83ab0 <_svfprintf_r+0x8f0>
   85440:	f940bbe0 	ldr	x0, [sp, #368]
   85444:	aa1603fc 	mov	x28, x22
   85448:	b940dbe9 	ldr	w9, [sp, #216]
   8544c:	b940e3eb 	ldr	w11, [sp, #224]
   85450:	b940fbe3 	ldr	w3, [sp, #248]
   85454:	17fffa7e 	b	83e4c <_svfprintf_r+0xc8c>
   85458:	b940ffe0 	ldr	w0, [sp, #252]
   8545c:	11004001 	add	w1, w0, #0x10
   85460:	7100003f 	cmp	w1, #0x0
   85464:	54001e8d 	b.le	85834 <_svfprintf_r+0x2674>
   85468:	f94043e0 	ldr	x0, [sp, #128]
   8546c:	b900ffe1 	str	w1, [sp, #252]
   85470:	91003c00 	add	x0, x0, #0xf
   85474:	927cec00 	and	x0, x0, #0xfffffffffffffff0
   85478:	91004001 	add	x1, x0, #0x10
   8547c:	f90043e1 	str	x1, [sp, #128]
   85480:	17fffa36 	b	83d58 <_svfprintf_r+0xb98>
   85484:	910543e4 	add	x4, sp, #0x150
   85488:	910563e2 	add	x2, sp, #0x158
   8548c:	aa1303e0 	mov	x0, x19
   85490:	d2800003 	mov	x3, #0x0                   	// #0
   85494:	d2800001 	mov	x1, #0x0                   	// #0
   85498:	b90093e8 	str	w8, [sp, #144]
   8549c:	2913afe9 	stp	w9, w11, [sp, #156]
   854a0:	940020c8 	bl	8d7c0 <_wcsrtombs_r>
   854a4:	b94093e8 	ldr	w8, [sp, #144]
   854a8:	2a0003fb 	mov	w27, w0
   854ac:	2953afe9 	ldp	w9, w11, [sp, #156]
   854b0:	3100041f 	cmn	w0, #0x1
   854b4:	54003f20 	b.eq	85c98 <_svfprintf_r+0x2ad8>  // b.none
   854b8:	f900aff8 	str	x24, [sp, #344]
   854bc:	17fffe92 	b	84f04 <_svfprintf_r+0x1d44>
   854c0:	528005a0 	mov	w0, #0x2d                  	// #45
   854c4:	528005a1 	mov	w1, #0x2d                  	// #45
   854c8:	3904bfe0 	strb	w0, [sp, #303]
   854cc:	17fffa34 	b	83d9c <_svfprintf_r+0xbdc>
   854d0:	b940ffe0 	ldr	w0, [sp, #252]
   854d4:	11004001 	add	w1, w0, #0x10
   854d8:	7100003f 	cmp	w1, #0x0
   854dc:	540019cd 	b.le	85814 <_svfprintf_r+0x2654>
   854e0:	f94043e0 	ldr	x0, [sp, #128]
   854e4:	b900ffe1 	str	w1, [sp, #252]
   854e8:	91003c02 	add	x2, x0, #0xf
   854ec:	fd400008 	ldr	d8, [x0]
   854f0:	927df041 	and	x1, x2, #0xfffffffffffffff8
   854f4:	f90043e1 	str	x1, [sp, #128]
   854f8:	17fffa21 	b	83d7c <_svfprintf_r+0xbbc>
   854fc:	910583e2 	add	x2, sp, #0x160
   85500:	aa1503e1 	mov	x1, x21
   85504:	aa1303e0 	mov	x0, x19
   85508:	b90093e9 	str	w9, [sp, #144]
   8550c:	29138feb 	stp	w11, w3, [sp, #156]
   85510:	94002d7c 	bl	90b00 <__ssprint_r>
   85514:	35ff2ce0 	cbnz	w0, 83ab0 <_svfprintf_r+0x8f0>
   85518:	f940bbe0 	ldr	x0, [sp, #368]
   8551c:	aa1603fc 	mov	x28, x22
   85520:	b94093e9 	ldr	w9, [sp, #144]
   85524:	29538feb 	ldp	w11, w3, [sp, #156]
   85528:	b9413be2 	ldr	w2, [sp, #312]
   8552c:	17fff8e0 	b	838ac <_svfprintf_r+0x6ec>
   85530:	3944bfe1 	ldrb	w1, [sp, #303]
   85534:	52800003 	mov	w3, #0x0                   	// #0
   85538:	b90093ff 	str	wzr, [sp, #144]
   8553c:	52800007 	mov	w7, #0x0                   	// #0
   85540:	2913ffff 	stp	wzr, wzr, [sp, #156]
   85544:	d2800017 	mov	x23, #0x0                   	// #0
   85548:	34fef3c1 	cbz	w1, 833c0 <_svfprintf_r+0x200>
   8554c:	17fffa23 	b	83dd8 <_svfprintf_r+0xc18>
   85550:	910583e2 	add	x2, sp, #0x160
   85554:	aa1503e1 	mov	x1, x21
   85558:	aa1303e0 	mov	x0, x19
   8555c:	b900dbe9 	str	w9, [sp, #216]
   85560:	b900e3eb 	str	w11, [sp, #224]
   85564:	b900fbe3 	str	w3, [sp, #248]
   85568:	94002d66 	bl	90b00 <__ssprint_r>
   8556c:	35ff2a20 	cbnz	w0, 83ab0 <_svfprintf_r+0x8f0>
   85570:	f940bbe0 	ldr	x0, [sp, #368]
   85574:	aa1603fc 	mov	x28, x22
   85578:	b940dbe9 	ldr	w9, [sp, #216]
   8557c:	b940e3eb 	ldr	w11, [sp, #224]
   85580:	b940fbe3 	ldr	w3, [sp, #248]
   85584:	17fffa2c 	b	83e34 <_svfprintf_r+0xc74>
   85588:	3606f849 	tbz	w9, #0, 83490 <_svfprintf_r+0x2d0>
   8558c:	a94b13e2 	ldp	x2, x4, [sp, #176]
   85590:	a9000b84 	stp	x4, x2, [x28]
   85594:	b9416be1 	ldr	w1, [sp, #360]
   85598:	91004386 	add	x6, x28, #0x10
   8559c:	11000421 	add	w1, w1, #0x1
   855a0:	b9016be1 	str	w1, [sp, #360]
   855a4:	8b000040 	add	x0, x2, x0
   855a8:	f900bbe0 	str	x0, [sp, #368]
   855ac:	71001c3f 	cmp	w1, #0x7
   855b0:	54ff19ad 	b.le	838e4 <_svfprintf_r+0x724>
   855b4:	910583e2 	add	x2, sp, #0x160
   855b8:	aa1503e1 	mov	x1, x21
   855bc:	aa1303e0 	mov	x0, x19
   855c0:	b90093e9 	str	w9, [sp, #144]
   855c4:	29138feb 	stp	w11, w3, [sp, #156]
   855c8:	94002d4e 	bl	90b00 <__ssprint_r>
   855cc:	35ff2720 	cbnz	w0, 83ab0 <_svfprintf_r+0x8f0>
   855d0:	f940bbe0 	ldr	x0, [sp, #368]
   855d4:	aa1603e6 	mov	x6, x22
   855d8:	b94093e9 	ldr	w9, [sp, #144]
   855dc:	29538feb 	ldp	w11, w3, [sp, #156]
   855e0:	b9413be2 	ldr	w2, [sp, #312]
   855e4:	b9416be1 	ldr	w1, [sp, #360]
   855e8:	17fff8be 	b	838e0 <_svfprintf_r+0x720>
   855ec:	b940cbe1 	ldr	w1, [sp, #200]
   855f0:	4b1a003a 	sub	w26, w1, w26
   855f4:	f9406be1 	ldr	x1, [sp, #208]
   855f8:	cb18003b 	sub	x27, x1, x24
   855fc:	6b1b035f 	cmp	w26, w27
   85600:	1a9bb35b 	csel	w27, w26, w27, lt	// lt = tstop
   85604:	17fffa36 	b	83edc <_svfprintf_r+0xd1c>
   85608:	37f850c0 	tbnz	w0, #31, 86020 <_svfprintf_r+0x2e60>
   8560c:	f94043e0 	ldr	x0, [sp, #128]
   85610:	91002c01 	add	x1, x0, #0xb
   85614:	927df021 	and	x1, x1, #0xfffffffffffffff8
   85618:	f90043e1 	str	x1, [sp, #128]
   8561c:	b9400000 	ldr	w0, [x0]
   85620:	52800021 	mov	w1, #0x1                   	// #1
   85624:	17fffb10 	b	84264 <_svfprintf_r+0x10a4>
   85628:	37f84ba0 	tbnz	w0, #31, 85f9c <_svfprintf_r+0x2ddc>
   8562c:	f94043e0 	ldr	x0, [sp, #128]
   85630:	91003c01 	add	x1, x0, #0xf
   85634:	927df021 	and	x1, x1, #0xfffffffffffffff8
   85638:	f90043e1 	str	x1, [sp, #128]
   8563c:	f9400000 	ldr	x0, [x0]
   85640:	7940f3e1 	ldrh	w1, [sp, #120]
   85644:	79000001 	strh	w1, [x0]
   85648:	17fff712 	b	83290 <_svfprintf_r+0xd0>
   8564c:	37f841e0 	tbnz	w0, #31, 85e88 <_svfprintf_r+0x2cc8>
   85650:	f94043e0 	ldr	x0, [sp, #128]
   85654:	91002c01 	add	x1, x0, #0xb
   85658:	927df021 	and	x1, x1, #0xfffffffffffffff8
   8565c:	f90043e1 	str	x1, [sp, #128]
   85660:	b9800000 	ldrsw	x0, [x0]
   85664:	aa0003e1 	mov	x1, x0
   85668:	17fffb23 	b	842f4 <_svfprintf_r+0x1134>
   8566c:	37f847e0 	tbnz	w0, #31, 85f68 <_svfprintf_r+0x2da8>
   85670:	f94043e0 	ldr	x0, [sp, #128]
   85674:	91002c01 	add	x1, x0, #0xb
   85678:	927df021 	and	x1, x1, #0xfffffffffffffff8
   8567c:	b9400000 	ldr	w0, [x0]
   85680:	f90043e1 	str	x1, [sp, #128]
   85684:	17fffb33 	b	84350 <_svfprintf_r+0x1190>
   85688:	37f845a0 	tbnz	w0, #31, 85f3c <_svfprintf_r+0x2d7c>
   8568c:	f94043e0 	ldr	x0, [sp, #128]
   85690:	91002c01 	add	x1, x0, #0xb
   85694:	927df021 	and	x1, x1, #0xfffffffffffffff8
   85698:	b9400000 	ldr	w0, [x0]
   8569c:	f90043e1 	str	x1, [sp, #128]
   856a0:	17fffd05 	b	84ab4 <_svfprintf_r+0x18f4>
   856a4:	f94057e2 	ldr	x2, [sp, #168]
   856a8:	b9409be0 	ldr	w0, [sp, #152]
   856ac:	b9009be1 	str	w1, [sp, #152]
   856b0:	8b20c040 	add	x0, x2, w0, sxtw
   856b4:	17fffac3 	b	841c0 <_svfprintf_r+0x1000>
   856b8:	aa1803e0 	mov	x0, x24
   856bc:	b900d3e9 	str	w9, [sp, #208]
   856c0:	b900dbeb 	str	w11, [sp, #216]
   856c4:	97fff4af 	bl	82980 <strlen>
   856c8:	3944bfe1 	ldrb	w1, [sp, #303]
   856cc:	7100001f 	cmp	w0, #0x0
   856d0:	2913ffff 	stp	wzr, wzr, [sp, #156]
   856d4:	2a0003fb 	mov	w27, w0
   856d8:	b940d3e9 	ldr	w9, [sp, #208]
   856dc:	1a9fa003 	csel	w3, w0, wzr, ge	// ge = tcont
   856e0:	b940dbeb 	ldr	w11, [sp, #216]
   856e4:	d2800017 	mov	x23, #0x0                   	// #0
   856e8:	52800007 	mov	w7, #0x0                   	// #0
   856ec:	52800e68 	mov	w8, #0x73                  	// #115
   856f0:	34fee681 	cbz	w1, 833c0 <_svfprintf_r+0x200>
   856f4:	17fff9b9 	b	83dd8 <_svfprintf_r+0xc18>
   856f8:	b9409be0 	ldr	w0, [sp, #152]
   856fc:	11002001 	add	w1, w0, #0x8
   85700:	7100003f 	cmp	w1, #0x0
   85704:	54003d6d 	b.le	85eb0 <_svfprintf_r+0x2cf0>
   85708:	f94043e0 	ldr	x0, [sp, #128]
   8570c:	b9009be1 	str	w1, [sp, #152]
   85710:	91002c02 	add	x2, x0, #0xb
   85714:	927df041 	and	x1, x2, #0xfffffffffffffff8
   85718:	f90043e1 	str	x1, [sp, #128]
   8571c:	17fffbce 	b	84654 <_svfprintf_r+0x1494>
   85720:	b9409be0 	ldr	w0, [sp, #152]
   85724:	11002001 	add	w1, w0, #0x8
   85728:	7100003f 	cmp	w1, #0x0
   8572c:	540033ad 	b.le	85da0 <_svfprintf_r+0x2be0>
   85730:	f94043e0 	ldr	x0, [sp, #128]
   85734:	b9009be1 	str	w1, [sp, #152]
   85738:	91002c02 	add	x2, x0, #0xb
   8573c:	927df041 	and	x1, x2, #0xfffffffffffffff8
   85740:	f90043e1 	str	x1, [sp, #128]
   85744:	17fffbbb 	b	84630 <_svfprintf_r+0x1470>
   85748:	b9409be0 	ldr	w0, [sp, #152]
   8574c:	11002001 	add	w1, w0, #0x8
   85750:	7100003f 	cmp	w1, #0x0
   85754:	5400330d 	b.le	85db4 <_svfprintf_r+0x2bf4>
   85758:	f94043e0 	ldr	x0, [sp, #128]
   8575c:	b9009be1 	str	w1, [sp, #152]
   85760:	91002c02 	add	x2, x0, #0xb
   85764:	927df041 	and	x1, x2, #0xfffffffffffffff8
   85768:	79400000 	ldrh	w0, [x0]
   8576c:	f90043e1 	str	x1, [sp, #128]
   85770:	17fffaf8 	b	84350 <_svfprintf_r+0x1190>
   85774:	b9409be0 	ldr	w0, [sp, #152]
   85778:	11002001 	add	w1, w0, #0x8
   8577c:	7100003f 	cmp	w1, #0x0
   85780:	5400470d 	b.le	86060 <_svfprintf_r+0x2ea0>
   85784:	f94043e0 	ldr	x0, [sp, #128]
   85788:	b9009be1 	str	w1, [sp, #152]
   8578c:	91002c02 	add	x2, x0, #0xb
   85790:	927df041 	and	x1, x2, #0xfffffffffffffff8
   85794:	79400000 	ldrh	w0, [x0]
   85798:	f90043e1 	str	x1, [sp, #128]
   8579c:	17fffcc6 	b	84ab4 <_svfprintf_r+0x18f4>
   857a0:	52800020 	mov	w0, #0x1                   	// #1
   857a4:	b9013be0 	str	w0, [sp, #312]
   857a8:	17fffd69 	b	84d4c <_svfprintf_r+0x1b8c>
   857ac:	11000761 	add	w1, w27, #0x1
   857b0:	aa1303e0 	mov	x0, x19
   857b4:	b90093e8 	str	w8, [sp, #144]
   857b8:	93407c21 	sxtw	x1, w1
   857bc:	2913afe9 	stp	w9, w11, [sp, #156]
   857c0:	94001770 	bl	8b580 <_malloc_r>
   857c4:	aa0003f8 	mov	x24, x0
   857c8:	b94093e8 	ldr	w8, [sp, #144]
   857cc:	2953afe9 	ldp	w9, w11, [sp, #156]
   857d0:	b4002640 	cbz	x0, 85c98 <_svfprintf_r+0x2ad8>
   857d4:	aa0003f7 	mov	x23, x0
   857d8:	17fffdd0 	b	84f18 <_svfprintf_r+0x1d58>
   857dc:	110004e1 	add	w1, w7, #0x1
   857e0:	aa1303e0 	mov	x0, x19
   857e4:	b90093e7 	str	w7, [sp, #144]
   857e8:	93407c21 	sxtw	x1, w1
   857ec:	2913afe8 	stp	w8, w11, [sp, #156]
   857f0:	b900cbe9 	str	w9, [sp, #200]
   857f4:	94001763 	bl	8b580 <_malloc_r>
   857f8:	b94093e7 	ldr	w7, [sp, #144]
   857fc:	aa0003f8 	mov	x24, x0
   85800:	2953afe8 	ldp	w8, w11, [sp, #156]
   85804:	b940cbe9 	ldr	w9, [sp, #200]
   85808:	b4002480 	cbz	x0, 85c98 <_svfprintf_r+0x2ad8>
   8580c:	aa0003f7 	mov	x23, x0
   85810:	17fffd3b 	b	84cfc <_svfprintf_r+0x1b3c>
   85814:	f9408be2 	ldr	x2, [sp, #272]
   85818:	b940ffe0 	ldr	w0, [sp, #252]
   8581c:	b900ffe1 	str	w1, [sp, #252]
   85820:	8b20c040 	add	x0, x2, w0, sxtw
   85824:	fd400008 	ldr	d8, [x0]
   85828:	17fff955 	b	83d7c <_svfprintf_r+0xbbc>
   8582c:	528000c7 	mov	w7, #0x6                   	// #6
   85830:	17fffe73 	b	851fc <_svfprintf_r+0x203c>
   85834:	f9408be2 	ldr	x2, [sp, #272]
   85838:	b940ffe0 	ldr	w0, [sp, #252]
   8583c:	b900ffe1 	str	w1, [sp, #252]
   85840:	8b20c040 	add	x0, x2, w0, sxtw
   85844:	17fff945 	b	83d58 <_svfprintf_r+0xb98>
   85848:	528005a0 	mov	w0, #0x2d                  	// #45
   8584c:	11000463 	add	w3, w3, #0x1
   85850:	528005a1 	mov	w1, #0x2d                  	// #45
   85854:	52800007 	mov	w7, #0x0                   	// #0
   85858:	3904bfe0 	strb	w0, [sp, #303]
   8585c:	17fff6d9 	b	833c0 <_svfprintf_r+0x200>
   85860:	b94093e1 	ldr	w1, [sp, #144]
   85864:	b940cbe2 	ldr	w2, [sp, #200]
   85868:	6b02003f 	cmp	w1, w2
   8586c:	5400128b 	b.lt	85abc <_svfprintf_r+0x28fc>  // b.tstop
   85870:	b94093e0 	ldr	w0, [sp, #144]
   85874:	f240013f 	tst	x9, #0x1
   85878:	b940b3e1 	ldr	w1, [sp, #176]
   8587c:	0b01000c 	add	w12, w0, w1
   85880:	1a80119b 	csel	w27, w12, w0, ne	// ne = any
   85884:	36500089 	tbz	w9, #10, 85894 <_svfprintf_r+0x26d4>
   85888:	b94093e0 	ldr	w0, [sp, #144]
   8588c:	7100001f 	cmp	w0, #0x0
   85890:	54002a8c 	b.gt	85de0 <_svfprintf_r+0x2c20>
   85894:	7100037f 	cmp	w27, #0x0
   85898:	52800ce8 	mov	w8, #0x67                  	// #103
   8589c:	1a9fa363 	csel	w3, w27, wzr, ge	// ge = tcont
   858a0:	2a1703e9 	mov	w9, w23
   858a4:	d2800017 	mov	x23, #0x0                   	// #0
   858a8:	2913ffff 	stp	wzr, wzr, [sp, #156]
   858ac:	17fffec4 	b	853bc <_svfprintf_r+0x21fc>
   858b0:	1e604120 	fmov	d0, d9
   858b4:	2a0703e2 	mov	w2, w7
   858b8:	910563e5 	add	x5, sp, #0x158
   858bc:	910543e4 	add	x4, sp, #0x150
   858c0:	9104e3e3 	add	x3, sp, #0x138
   858c4:	aa1303e0 	mov	x0, x19
   858c8:	52800061 	mov	w1, #0x3                   	// #3
   858cc:	b90093e7 	str	w7, [sp, #144]
   858d0:	2913afe8 	stp	w8, w11, [sp, #156]
   858d4:	b900cbe9 	str	w9, [sp, #200]
   858d8:	94002036 	bl	8d9b0 <_dtoa_r>
   858dc:	aa0003f8 	mov	x24, x0
   858e0:	39400000 	ldrb	w0, [x0]
   858e4:	2f00e400 	movi	d0, #0x0
   858e8:	b94093e7 	ldr	w7, [sp, #144]
   858ec:	7100c01f 	cmp	w0, #0x30
   858f0:	b940cbe9 	ldr	w9, [sp, #200]
   858f4:	2953afe8 	ldp	w8, w11, [sp, #156]
   858f8:	1e600524 	fccmp	d9, d0, #0x4, eq	// eq = none
   858fc:	54004a41 	b.ne	86244 <_svfprintf_r+0x3084>  // b.any
   85900:	b9413be0 	ldr	w0, [sp, #312]
   85904:	1e602128 	fcmp	d9, #0.0
   85908:	93407ce1 	sxtw	x1, w7
   8590c:	8b20c020 	add	x0, x1, w0, sxtw
   85910:	54001dc0 	b.eq	85cc8 <_svfprintf_r+0x2b08>  // b.none
   85914:	8b000302 	add	x2, x24, x0
   85918:	17fffe58 	b	85278 <_svfprintf_r+0x20b8>
   8591c:	b9409be0 	ldr	w0, [sp, #152]
   85920:	11002001 	add	w1, w0, #0x8
   85924:	7100003f 	cmp	w1, #0x0
   85928:	540022cd 	b.le	85d80 <_svfprintf_r+0x2bc0>
   8592c:	f94043e0 	ldr	x0, [sp, #128]
   85930:	b9009be1 	str	w1, [sp, #152]
   85934:	91002c02 	add	x2, x0, #0xb
   85938:	927df041 	and	x1, x2, #0xfffffffffffffff8
   8593c:	f90043e1 	str	x1, [sp, #128]
   85940:	17fffb80 	b	84740 <_svfprintf_r+0x1580>
   85944:	f94057e2 	ldr	x2, [sp, #168]
   85948:	b9409be0 	ldr	w0, [sp, #152]
   8594c:	b9009be1 	str	w1, [sp, #152]
   85950:	8b20c042 	add	x2, x2, w0, sxtw
   85954:	f94043e0 	ldr	x0, [sp, #128]
   85958:	f90043e2 	str	x2, [sp, #128]
   8595c:	17fffad7 	b	844b8 <_svfprintf_r+0x12f8>
   85960:	f94057e2 	ldr	x2, [sp, #168]
   85964:	b9409be0 	ldr	w0, [sp, #152]
   85968:	b9009be1 	str	w1, [sp, #152]
   8596c:	8b20c040 	add	x0, x2, w0, sxtw
   85970:	17fffa8a 	b	84398 <_svfprintf_r+0x11d8>
   85974:	f94057e2 	ldr	x2, [sp, #168]
   85978:	b9409be0 	ldr	w0, [sp, #152]
   8597c:	b9009be1 	str	w1, [sp, #152]
   85980:	8b20c040 	add	x0, x2, w0, sxtw
   85984:	17fff9dd 	b	840f8 <_svfprintf_r+0xf38>
   85988:	910583e2 	add	x2, sp, #0x160
   8598c:	aa1503e1 	mov	x1, x21
   85990:	aa1303e0 	mov	x0, x19
   85994:	94002c5b 	bl	90b00 <__ssprint_r>
   85998:	350000e0 	cbnz	w0, 859b4 <_svfprintf_r+0x27f4>
   8599c:	f940bbe0 	ldr	x0, [sp, #368]
   859a0:	90000083 	adrp	x3, 95000 <pmu_event_descr+0x60>
   859a4:	39400322 	ldrb	w2, [x25]
   859a8:	aa1603e1 	mov	x1, x22
   859ac:	911b8064 	add	x4, x3, #0x6e0
   859b0:	17fffc2b 	b	84a5c <_svfprintf_r+0x189c>
   859b4:	f9404bf7 	ldr	x23, [sp, #144]
   859b8:	17fff83e 	b	83ab0 <_svfprintf_r+0x8f0>
   859bc:	910583e2 	add	x2, sp, #0x160
   859c0:	aa1503e1 	mov	x1, x21
   859c4:	aa1303e0 	mov	x0, x19
   859c8:	b90093e9 	str	w9, [sp, #144]
   859cc:	29138feb 	stp	w11, w3, [sp, #156]
   859d0:	94002c4c 	bl	90b00 <__ssprint_r>
   859d4:	35ff06e0 	cbnz	w0, 83ab0 <_svfprintf_r+0x8f0>
   859d8:	f940bbe0 	ldr	x0, [sp, #368]
   859dc:	aa1603fc 	mov	x28, x22
   859e0:	b94093e9 	ldr	w9, [sp, #144]
   859e4:	29538feb 	ldp	w11, w3, [sp, #156]
   859e8:	b9413bfa 	ldr	w26, [sp, #312]
   859ec:	17fff92a 	b	83e94 <_svfprintf_r+0xcd4>
   859f0:	f94077e1 	ldr	x1, [sp, #232]
   859f4:	b90093e8 	str	w8, [sp, #144]
   859f8:	f94083e0 	ldr	x0, [sp, #256]
   859fc:	b9009feb 	str	w11, [sp, #156]
   85a00:	f90053e3 	str	x3, [sp, #160]
   85a04:	cb000318 	sub	x24, x24, x0
   85a08:	aa0003e2 	mov	x2, x0
   85a0c:	aa1803e0 	mov	x0, x24
   85a10:	b900cbe7 	str	w7, [sp, #200]
   85a14:	a90d33e4 	stp	x4, x12, [sp, #208]
   85a18:	9400291e 	bl	8fe90 <strncpy>
   85a1c:	394006a0 	ldrb	w0, [x21, #1]
   85a20:	f94053e3 	ldr	x3, [sp, #160]
   85a24:	7100001f 	cmp	w0, #0x0
   85a28:	a94d33e4 	ldp	x4, x12, [sp, #208]
   85a2c:	9a9506b5 	cinc	x21, x21, ne	// ne = any
   85a30:	b94093e8 	ldr	w8, [sp, #144]
   85a34:	52800005 	mov	w5, #0x0                   	// #0
   85a38:	b9409feb 	ldr	w11, [sp, #156]
   85a3c:	b940cbe7 	ldr	w7, [sp, #200]
   85a40:	17fffd71 	b	85004 <_svfprintf_r+0x1e44>
   85a44:	2a1703e5 	mov	w5, w23
   85a48:	2a1903e3 	mov	w3, w25
   85a4c:	aa1a03f7 	mov	x23, x26
   85a50:	aa1c03f9 	mov	x25, x28
   85a54:	b94093e9 	ldr	w9, [sp, #144]
   85a58:	aa0203fc 	mov	x28, x2
   85a5c:	b9409feb 	ldr	w11, [sp, #156]
   85a60:	aa1803e4 	mov	x4, x24
   85a64:	2a0503fa 	mov	w26, w5
   85a68:	17fffd4d 	b	84f9c <_svfprintf_r+0x1ddc>
   85a6c:	f94057e2 	ldr	x2, [sp, #168]
   85a70:	b9409be0 	ldr	w0, [sp, #152]
   85a74:	b9009be1 	str	w1, [sp, #152]
   85a78:	8b20c040 	add	x0, x2, w0, sxtw
   85a7c:	17fffa65 	b	84410 <_svfprintf_r+0x1250>
   85a80:	910583e2 	add	x2, sp, #0x160
   85a84:	aa1503e1 	mov	x1, x21
   85a88:	aa1303e0 	mov	x0, x19
   85a8c:	b90093e9 	str	w9, [sp, #144]
   85a90:	29138feb 	stp	w11, w3, [sp, #156]
   85a94:	94002c1b 	bl	90b00 <__ssprint_r>
   85a98:	35ff00c0 	cbnz	w0, 83ab0 <_svfprintf_r+0x8f0>
   85a9c:	b940cbe1 	ldr	w1, [sp, #200]
   85aa0:	aa1603fc 	mov	x28, x22
   85aa4:	b9413bfa 	ldr	w26, [sp, #312]
   85aa8:	f940bbe0 	ldr	x0, [sp, #368]
   85aac:	4b1a003a 	sub	w26, w1, w26
   85ab0:	b94093e9 	ldr	w9, [sp, #144]
   85ab4:	29538feb 	ldp	w11, w3, [sp, #156]
   85ab8:	17fff909 	b	83edc <_svfprintf_r+0xd1c>
   85abc:	b940b3e1 	ldr	w1, [sp, #176]
   85ac0:	52800ce8 	mov	w8, #0x67                  	// #103
   85ac4:	0b00003b 	add	w27, w1, w0
   85ac8:	b94093e0 	ldr	w0, [sp, #144]
   85acc:	7100001f 	cmp	w0, #0x0
   85ad0:	540000ad 	b.le	85ae4 <_svfprintf_r+0x2924>
   85ad4:	37501889 	tbnz	w9, #10, 85de4 <_svfprintf_r+0x2c24>
   85ad8:	7100037f 	cmp	w27, #0x0
   85adc:	1a9fa363 	csel	w3, w27, wzr, ge	// ge = tcont
   85ae0:	17ffff70 	b	858a0 <_svfprintf_r+0x26e0>
   85ae4:	4b00036c 	sub	w12, w27, w0
   85ae8:	3100059b 	adds	w27, w12, #0x1
   85aec:	1a9f5363 	csel	w3, w27, wzr, pl	// pl = nfrst
   85af0:	17ffff6c 	b	858a0 <_svfprintf_r+0x26e0>
   85af4:	90000084 	adrp	x4, 95000 <pmu_event_descr+0x60>
   85af8:	4b0203fa 	neg	w26, w2
   85afc:	911b8084 	add	x4, x4, #0x6e0
   85b00:	3100405f 	cmn	w2, #0x10
   85b04:	5400086a 	b.ge	85c10 <_svfprintf_r+0x2a50>  // b.tcont
   85b08:	aa1903e2 	mov	x2, x25
   85b0c:	2a0903fc 	mov	w28, w9
   85b10:	aa1703f9 	mov	x25, x23
   85b14:	d280021b 	mov	x27, #0x10                  	// #16
   85b18:	aa1503f7 	mov	x23, x21
   85b1c:	2a1a03f5 	mov	w21, w26
   85b20:	aa0203fa 	mov	x26, x2
   85b24:	f9004bf8 	str	x24, [sp, #144]
   85b28:	aa0403f8 	mov	x24, x4
   85b2c:	29138feb 	stp	w11, w3, [sp, #156]
   85b30:	14000004 	b	85b40 <_svfprintf_r+0x2980>
   85b34:	510042b5 	sub	w21, w21, #0x10
   85b38:	710042bf 	cmp	w21, #0x10
   85b3c:	5400058d 	b.le	85bec <_svfprintf_r+0x2a2c>
   85b40:	91004000 	add	x0, x0, #0x10
   85b44:	11000421 	add	w1, w1, #0x1
   85b48:	a9006cd8 	stp	x24, x27, [x6]
   85b4c:	910040c6 	add	x6, x6, #0x10
   85b50:	b9016be1 	str	w1, [sp, #360]
   85b54:	f900bbe0 	str	x0, [sp, #368]
   85b58:	71001c3f 	cmp	w1, #0x7
   85b5c:	54fffecd 	b.le	85b34 <_svfprintf_r+0x2974>
   85b60:	910583e2 	add	x2, sp, #0x160
   85b64:	aa1703e1 	mov	x1, x23
   85b68:	aa1303e0 	mov	x0, x19
   85b6c:	94002be5 	bl	90b00 <__ssprint_r>
   85b70:	35002c60 	cbnz	w0, 860fc <_svfprintf_r+0x2f3c>
   85b74:	f940bbe0 	ldr	x0, [sp, #368]
   85b78:	aa1603e6 	mov	x6, x22
   85b7c:	b9416be1 	ldr	w1, [sp, #360]
   85b80:	17ffffed 	b	85b34 <_svfprintf_r+0x2974>
   85b84:	1e604120 	fmov	d0, d9
   85b88:	2a0703e2 	mov	w2, w7
   85b8c:	910563e5 	add	x5, sp, #0x158
   85b90:	910543e4 	add	x4, sp, #0x150
   85b94:	9104e3e3 	add	x3, sp, #0x138
   85b98:	aa1303e0 	mov	x0, x19
   85b9c:	52800041 	mov	w1, #0x2                   	// #2
   85ba0:	b90093e7 	str	w7, [sp, #144]
   85ba4:	2913afe8 	stp	w8, w11, [sp, #156]
   85ba8:	b900cbe9 	str	w9, [sp, #200]
   85bac:	94001f81 	bl	8d9b0 <_dtoa_r>
   85bb0:	b940cbe9 	ldr	w9, [sp, #200]
   85bb4:	aa0003f8 	mov	x24, x0
   85bb8:	b94093e7 	ldr	w7, [sp, #144]
   85bbc:	2953afe8 	ldp	w8, w11, [sp, #156]
   85bc0:	360000a9 	tbz	w9, #0, 85bd4 <_svfprintf_r+0x2a14>
   85bc4:	1e602128 	fcmp	d9, #0.0
   85bc8:	54002a60 	b.eq	86114 <_svfprintf_r+0x2f54>  // b.none
   85bcc:	8b27c302 	add	x2, x24, w7, sxtw
   85bd0:	17fffdaa 	b	85278 <_svfprintf_r+0x20b8>
   85bd4:	f940afe0 	ldr	x0, [sp, #344]
   85bd8:	b9413be1 	ldr	w1, [sp, #312]
   85bdc:	cb180000 	sub	x0, x0, x24
   85be0:	b90093e1 	str	w1, [sp, #144]
   85be4:	b900cbe0 	str	w0, [sp, #200]
   85be8:	17fffdb4 	b	852b8 <_svfprintf_r+0x20f8>
   85bec:	aa1a03e2 	mov	x2, x26
   85bf0:	aa1803e4 	mov	x4, x24
   85bf4:	f9404bf8 	ldr	x24, [sp, #144]
   85bf8:	2a1503fa 	mov	w26, w21
   85bfc:	29538feb 	ldp	w11, w3, [sp, #156]
   85c00:	aa1703f5 	mov	x21, x23
   85c04:	2a1c03e9 	mov	w9, w28
   85c08:	aa1903f7 	mov	x23, x25
   85c0c:	aa0203f9 	mov	x25, x2
   85c10:	93407f5a 	sxtw	x26, w26
   85c14:	11000421 	add	w1, w1, #0x1
   85c18:	8b1a0000 	add	x0, x0, x26
   85c1c:	a90068c4 	stp	x4, x26, [x6]
   85c20:	910040c6 	add	x6, x6, #0x10
   85c24:	b9016be1 	str	w1, [sp, #360]
   85c28:	f900bbe0 	str	x0, [sp, #368]
   85c2c:	71001c3f 	cmp	w1, #0x7
   85c30:	54fee5ad 	b.le	838e4 <_svfprintf_r+0x724>
   85c34:	910583e2 	add	x2, sp, #0x160
   85c38:	aa1503e1 	mov	x1, x21
   85c3c:	aa1303e0 	mov	x0, x19
   85c40:	b90093e9 	str	w9, [sp, #144]
   85c44:	29138feb 	stp	w11, w3, [sp, #156]
   85c48:	94002bae 	bl	90b00 <__ssprint_r>
   85c4c:	35fef320 	cbnz	w0, 83ab0 <_svfprintf_r+0x8f0>
   85c50:	f940bbe0 	ldr	x0, [sp, #368]
   85c54:	aa1603e6 	mov	x6, x22
   85c58:	b94093e9 	ldr	w9, [sp, #144]
   85c5c:	29538feb 	ldp	w11, w3, [sp, #156]
   85c60:	b9416be1 	ldr	w1, [sp, #360]
   85c64:	17fff720 	b	838e4 <_svfprintf_r+0x724>
   85c68:	91050be1 	add	x1, sp, #0x142
   85c6c:	35000082 	cbnz	w2, 85c7c <_svfprintf_r+0x2abc>
   85c70:	91050fe1 	add	x1, sp, #0x143
   85c74:	52800602 	mov	w2, #0x30                  	// #48
   85c78:	39050be2 	strb	w2, [sp, #322]
   85c7c:	1100c000 	add	w0, w0, #0x30
   85c80:	38001420 	strb	w0, [x1], #1
   85c84:	910503e2 	add	x2, sp, #0x140
   85c88:	4b020020 	sub	w0, w1, w2
   85c8c:	b900cfe0 	str	w0, [sp, #204]
   85c90:	17fffdbf 	b	8538c <_svfprintf_r+0x21cc>
   85c94:	aa1903f5 	mov	x21, x25
   85c98:	a94363f7 	ldp	x23, x24, [sp, #48]
   85c9c:	a9446bf9 	ldp	x25, x26, [sp, #64]
   85ca0:	a94573fb 	ldp	x27, x28, [sp, #80]
   85ca4:	6d4627e8 	ldp	d8, d9, [sp, #96]
   85ca8:	794022a0 	ldrh	w0, [x21, #16]
   85cac:	321a0000 	orr	w0, w0, #0x40
   85cb0:	790022a0 	strh	w0, [x21, #16]
   85cb4:	12800000 	mov	w0, #0xffffffff            	// #-1
   85cb8:	b9007be0 	str	w0, [sp, #120]
   85cbc:	17fff788 	b	83adc <_svfprintf_r+0x91c>
   85cc0:	3607b729 	tbz	w9, #0, 853a4 <_svfprintf_r+0x21e4>
   85cc4:	17fffdb6 	b	8539c <_svfprintf_r+0x21dc>
   85cc8:	b9413be1 	ldr	w1, [sp, #312]
   85ccc:	b900cbe0 	str	w0, [sp, #200]
   85cd0:	12000120 	and	w0, w9, #0x1
   85cd4:	b90093e1 	str	w1, [sp, #144]
   85cd8:	2a070000 	orr	w0, w0, w7
   85cdc:	7100003f 	cmp	w1, #0x0
   85ce0:	540025cd 	b.le	86198 <_svfprintf_r+0x2fd8>
   85ce4:	35000740 	cbnz	w0, 85dcc <_svfprintf_r+0x2c0c>
   85ce8:	b94093fb 	ldr	w27, [sp, #144]
   85cec:	52800cc8 	mov	w8, #0x66                  	// #102
   85cf0:	17ffff79 	b	85ad4 <_svfprintf_r+0x2914>
   85cf4:	f900afec 	str	x12, [sp, #344]
   85cf8:	aa0003e1 	mov	x1, x0
   85cfc:	39403c44 	ldrb	w4, [x2, #15]
   85d00:	385ff003 	ldurb	w3, [x0, #-1]
